ARM GAS  C:\Users\Patrick\AppData\Local\Temp\ccRiqN9y.s 			page 1


   1              		.cpu cortex-m3
   2              		.eabi_attribute 20, 1
   3              		.eabi_attribute 21, 1
   4              		.eabi_attribute 23, 3
   5              		.eabi_attribute 24, 1
   6              		.eabi_attribute 25, 1
   7              		.eabi_attribute 26, 1
   8              		.eabi_attribute 30, 1
   9              		.eabi_attribute 34, 1
  10              		.eabi_attribute 18, 4
  11              		.file	"can.c"
  12              		.text
  13              	.Ltext0:
  14              		.cfi_sections	.debug_frame
  15              		.section	.text.MX_CAN_Init,"ax",%progbits
  16              		.align	1
  17              		.global	MX_CAN_Init
  18              		.syntax unified
  19              		.thumb
  20              		.thumb_func
  21              		.fpu softvfp
  23              	MX_CAN_Init:
  24              	.LFB66:
  25              		.file 1 "Src/can.c"
   1:Src/can.c     **** /**
   2:Src/can.c     ****   ******************************************************************************
   3:Src/can.c     ****   * File Name          : CAN.c
   4:Src/can.c     ****   * Description        : This file provides code for the configuration
   5:Src/can.c     ****   *                      of the CAN instances.
   6:Src/can.c     ****   ******************************************************************************
   7:Src/can.c     ****   * @attention
   8:Src/can.c     ****   *
   9:Src/can.c     ****   * <h2><center>&copy; Copyright (c) 2019 STMicroelectronics.
  10:Src/can.c     ****   * All rights reserved.</center></h2>
  11:Src/can.c     ****   *
  12:Src/can.c     ****   * This software component is licensed by ST under BSD 3-Clause license,
  13:Src/can.c     ****   * the "License"; You may not use this file except in compliance with the
  14:Src/can.c     ****   * License. You may obtain a copy of the License at:
  15:Src/can.c     ****   *                        opensource.org/licenses/BSD-3-Clause
  16:Src/can.c     ****   *
  17:Src/can.c     ****   ******************************************************************************
  18:Src/can.c     ****   */
  19:Src/can.c     **** 
  20:Src/can.c     **** /* Includes ------------------------------------------------------------------*/
  21:Src/can.c     **** #include "can.h"
  22:Src/can.c     **** 
  23:Src/can.c     **** /* USER CODE BEGIN 0 */
  24:Src/can.c     **** 
  25:Src/can.c     **** /* USER CODE END 0 */
  26:Src/can.c     **** 
  27:Src/can.c     **** CAN_HandleTypeDef hcan;
  28:Src/can.c     **** CAN_RxHeaderTypeDef pHeader;
  29:Src/can.c     **** /* CAN init function */
  30:Src/can.c     **** void MX_CAN_Init(void)
  31:Src/can.c     **** {
  26              		.loc 1 31 0
  27              		.cfi_startproc
ARM GAS  C:\Users\Patrick\AppData\Local\Temp\ccRiqN9y.s 			page 2


  28              		@ args = 0, pretend = 0, frame = 0
  29              		@ frame_needed = 0, uses_anonymous_args = 0
  30 0000 08B5     		push	{r3, lr}
  31              	.LCFI0:
  32              		.cfi_def_cfa_offset 8
  33              		.cfi_offset 3, -8
  34              		.cfi_offset 14, -4
  32:Src/can.c     **** 
  33:Src/can.c     ****     hcan.Instance = CAN1;
  35              		.loc 1 33 0
  36 0002 0B48     		ldr	r0, .L5
  37 0004 0B4B     		ldr	r3, .L5+4
  38 0006 0360     		str	r3, [r0]
  34:Src/can.c     ****     hcan.Init.Prescaler = 16;
  39              		.loc 1 34 0
  40 0008 1023     		movs	r3, #16
  41 000a 4360     		str	r3, [r0, #4]
  35:Src/can.c     ****     hcan.Init.Mode = CAN_MODE_NORMAL;
  42              		.loc 1 35 0
  43 000c 0023     		movs	r3, #0
  44 000e 8360     		str	r3, [r0, #8]
  36:Src/can.c     ****     hcan.Init.SyncJumpWidth = CAN_SJW_1TQ;
  45              		.loc 1 36 0
  46 0010 C360     		str	r3, [r0, #12]
  37:Src/can.c     ****     hcan.Init.TimeSeg1 = CAN_BS1_1TQ;
  47              		.loc 1 37 0
  48 0012 0361     		str	r3, [r0, #16]
  38:Src/can.c     ****     hcan.Init.TimeSeg2 = CAN_BS2_1TQ;
  49              		.loc 1 38 0
  50 0014 4361     		str	r3, [r0, #20]
  39:Src/can.c     ****     hcan.Init.TimeTriggeredMode = DISABLE;
  51              		.loc 1 39 0
  52 0016 0376     		strb	r3, [r0, #24]
  40:Src/can.c     ****     hcan.Init.AutoBusOff = DISABLE;
  53              		.loc 1 40 0
  54 0018 4376     		strb	r3, [r0, #25]
  41:Src/can.c     ****     hcan.Init.AutoWakeUp = DISABLE;
  55              		.loc 1 41 0
  56 001a 8376     		strb	r3, [r0, #26]
  42:Src/can.c     ****     hcan.Init.AutoRetransmission = DISABLE;
  57              		.loc 1 42 0
  58 001c C376     		strb	r3, [r0, #27]
  43:Src/can.c     ****     hcan.Init.ReceiveFifoLocked = DISABLE;
  59              		.loc 1 43 0
  60 001e 0377     		strb	r3, [r0, #28]
  44:Src/can.c     ****     hcan.Init.TransmitFifoPriority = DISABLE;
  61              		.loc 1 44 0
  62 0020 4377     		strb	r3, [r0, #29]
  45:Src/can.c     ****     if (HAL_CAN_Init(&hcan) != HAL_OK)
  63              		.loc 1 45 0
  64 0022 FFF7FEFF 		bl	HAL_CAN_Init
  65              	.LVL0:
  66 0026 00B9     		cbnz	r0, .L4
  67              	.L1:
  46:Src/can.c     ****     {
  47:Src/can.c     ****         Error_Handler();
  48:Src/can.c     ****     }
ARM GAS  C:\Users\Patrick\AppData\Local\Temp\ccRiqN9y.s 			page 3


  49:Src/can.c     **** 
  50:Src/can.c     **** }
  68              		.loc 1 50 0
  69 0028 08BD     		pop	{r3, pc}
  70              	.L4:
  47:Src/can.c     ****     }
  71              		.loc 1 47 0
  72 002a FFF7FEFF 		bl	Error_Handler
  73              	.LVL1:
  74              		.loc 1 50 0
  75 002e FBE7     		b	.L1
  76              	.L6:
  77              		.align	2
  78              	.L5:
  79 0030 00000000 		.word	hcan
  80 0034 00640040 		.word	1073767424
  81              		.cfi_endproc
  82              	.LFE66:
  84              		.section	.text.HAL_CAN_MspInit,"ax",%progbits
  85              		.align	1
  86              		.global	HAL_CAN_MspInit
  87              		.syntax unified
  88              		.thumb
  89              		.thumb_func
  90              		.fpu softvfp
  92              	HAL_CAN_MspInit:
  93              	.LFB67:
  51:Src/can.c     **** 
  52:Src/can.c     **** void HAL_CAN_MspInit(CAN_HandleTypeDef* canHandle)
  53:Src/can.c     **** {
  94              		.loc 1 53 0
  95              		.cfi_startproc
  96              		@ args = 0, pretend = 0, frame = 24
  97              		@ frame_needed = 0, uses_anonymous_args = 0
  98              	.LVL2:
  99 0000 30B5     		push	{r4, r5, lr}
 100              	.LCFI1:
 101              		.cfi_def_cfa_offset 12
 102              		.cfi_offset 4, -12
 103              		.cfi_offset 5, -8
 104              		.cfi_offset 14, -4
 105 0002 87B0     		sub	sp, sp, #28
 106              	.LCFI2:
 107              		.cfi_def_cfa_offset 40
  54:Src/can.c     **** 
  55:Src/can.c     ****     GPIO_InitTypeDef GPIO_InitStruct = {0};
 108              		.loc 1 55 0
 109 0004 0023     		movs	r3, #0
 110 0006 0293     		str	r3, [sp, #8]
 111 0008 0393     		str	r3, [sp, #12]
 112 000a 0493     		str	r3, [sp, #16]
 113 000c 0593     		str	r3, [sp, #20]
  56:Src/can.c     ****     if(canHandle->Instance==CAN1)
 114              		.loc 1 56 0
 115 000e 0268     		ldr	r2, [r0]
 116 0010 234B     		ldr	r3, .L11
 117 0012 9A42     		cmp	r2, r3
ARM GAS  C:\Users\Patrick\AppData\Local\Temp\ccRiqN9y.s 			page 4


 118 0014 01D0     		beq	.L10
 119              	.LVL3:
 120              	.L7:
  57:Src/can.c     ****     {
  58:Src/can.c     ****         /* USER CODE BEGIN CAN1_MspInit 0 */
  59:Src/can.c     **** 
  60:Src/can.c     ****         /* USER CODE END CAN1_MspInit 0 */
  61:Src/can.c     ****         /* CAN1 clock enable */
  62:Src/can.c     ****         __HAL_RCC_CAN1_CLK_ENABLE();
  63:Src/can.c     **** 
  64:Src/can.c     ****         __HAL_RCC_GPIOB_CLK_ENABLE();
  65:Src/can.c     ****         /**CAN GPIO Configuration
  66:Src/can.c     ****         PB8     ------> CAN_RX
  67:Src/can.c     ****         PB9     ------> CAN_TX
  68:Src/can.c     ****         */
  69:Src/can.c     ****         GPIO_InitStruct.Pin = GPIO_PIN_8;
  70:Src/can.c     ****         GPIO_InitStruct.Mode = GPIO_MODE_INPUT;
  71:Src/can.c     ****         GPIO_InitStruct.Pull = GPIO_NOPULL;
  72:Src/can.c     ****         HAL_GPIO_Init(GPIOB, &GPIO_InitStruct);
  73:Src/can.c     **** 
  74:Src/can.c     ****         GPIO_InitStruct.Pin = GPIO_PIN_9;
  75:Src/can.c     ****         GPIO_InitStruct.Mode = GPIO_MODE_AF_PP;
  76:Src/can.c     ****         GPIO_InitStruct.Speed = GPIO_SPEED_FREQ_HIGH;
  77:Src/can.c     ****         HAL_GPIO_Init(GPIOB, &GPIO_InitStruct);
  78:Src/can.c     **** 
  79:Src/can.c     ****         __HAL_AFIO_REMAP_CAN1_2();
  80:Src/can.c     **** 
  81:Src/can.c     ****         /* CAN1 interrupt Init */
  82:Src/can.c     ****         HAL_NVIC_SetPriority(CAN1_RX1_IRQn, 0, 0);
  83:Src/can.c     ****         HAL_NVIC_EnableIRQ(CAN1_RX1_IRQn);
  84:Src/can.c     ****         HAL_NVIC_SetPriority(CAN1_SCE_IRQn, 0, 0);
  85:Src/can.c     ****         HAL_NVIC_EnableIRQ(CAN1_SCE_IRQn);
  86:Src/can.c     ****         /* USER CODE BEGIN CAN1_MspInit 1 */
  87:Src/can.c     **** 
  88:Src/can.c     ****         /* USER CODE END CAN1_MspInit 1 */
  89:Src/can.c     ****     }
  90:Src/can.c     **** }
 121              		.loc 1 90 0
 122 0016 07B0     		add	sp, sp, #28
 123              	.LCFI3:
 124              		.cfi_remember_state
 125              		.cfi_def_cfa_offset 12
 126              		@ sp needed
 127 0018 30BD     		pop	{r4, r5, pc}
 128              	.LVL4:
 129              	.L10:
 130              	.LCFI4:
 131              		.cfi_restore_state
 132              	.LBB2:
  62:Src/can.c     **** 
 133              		.loc 1 62 0
 134 001a 03F5D633 		add	r3, r3, #109568
 135 001e DA69     		ldr	r2, [r3, #28]
 136 0020 42F00072 		orr	r2, r2, #33554432
 137 0024 DA61     		str	r2, [r3, #28]
 138 0026 DA69     		ldr	r2, [r3, #28]
 139 0028 02F00072 		and	r2, r2, #33554432
ARM GAS  C:\Users\Patrick\AppData\Local\Temp\ccRiqN9y.s 			page 5


 140 002c 0092     		str	r2, [sp]
 141 002e 009A     		ldr	r2, [sp]
 142              	.LBE2:
 143              	.LBB3:
  64:Src/can.c     ****         /**CAN GPIO Configuration
 144              		.loc 1 64 0
 145 0030 9A69     		ldr	r2, [r3, #24]
 146 0032 42F00802 		orr	r2, r2, #8
 147 0036 9A61     		str	r2, [r3, #24]
 148 0038 9B69     		ldr	r3, [r3, #24]
 149 003a 03F00803 		and	r3, r3, #8
 150 003e 0193     		str	r3, [sp, #4]
 151 0040 019B     		ldr	r3, [sp, #4]
 152              	.LBE3:
  69:Src/can.c     ****         GPIO_InitStruct.Mode = GPIO_MODE_INPUT;
 153              		.loc 1 69 0
 154 0042 06AC     		add	r4, sp, #24
 155 0044 4FF48073 		mov	r3, #256
 156 0048 44F8103D 		str	r3, [r4, #-16]!
  72:Src/can.c     **** 
 157              		.loc 1 72 0
 158 004c 154D     		ldr	r5, .L11+4
 159 004e 2146     		mov	r1, r4
 160 0050 2846     		mov	r0, r5
 161              	.LVL5:
 162 0052 FFF7FEFF 		bl	HAL_GPIO_Init
 163              	.LVL6:
  74:Src/can.c     ****         GPIO_InitStruct.Mode = GPIO_MODE_AF_PP;
 164              		.loc 1 74 0
 165 0056 4FF40073 		mov	r3, #512
 166 005a 0293     		str	r3, [sp, #8]
  75:Src/can.c     ****         GPIO_InitStruct.Speed = GPIO_SPEED_FREQ_HIGH;
 167              		.loc 1 75 0
 168 005c 0223     		movs	r3, #2
 169 005e 0393     		str	r3, [sp, #12]
  76:Src/can.c     ****         HAL_GPIO_Init(GPIOB, &GPIO_InitStruct);
 170              		.loc 1 76 0
 171 0060 0323     		movs	r3, #3
 172 0062 0593     		str	r3, [sp, #20]
  77:Src/can.c     **** 
 173              		.loc 1 77 0
 174 0064 2146     		mov	r1, r4
 175 0066 2846     		mov	r0, r5
 176 0068 FFF7FEFF 		bl	HAL_GPIO_Init
 177              	.LVL7:
 178              	.LBB4:
  79:Src/can.c     **** 
 179              		.loc 1 79 0
 180 006c 0E4A     		ldr	r2, .L11+8
 181 006e 5368     		ldr	r3, [r2, #4]
 182              	.LVL8:
 183 0070 23F4C043 		bic	r3, r3, #24576
 184              	.LVL9:
 185 0074 43F0E063 		orr	r3, r3, #117440512
 186              	.LVL10:
 187 0078 43F48043 		orr	r3, r3, #16384
 188              	.LVL11:
ARM GAS  C:\Users\Patrick\AppData\Local\Temp\ccRiqN9y.s 			page 6


 189 007c 5360     		str	r3, [r2, #4]
 190              	.LBE4:
  82:Src/can.c     ****         HAL_NVIC_EnableIRQ(CAN1_RX1_IRQn);
 191              		.loc 1 82 0
 192 007e 0022     		movs	r2, #0
 193 0080 1146     		mov	r1, r2
 194 0082 1520     		movs	r0, #21
 195 0084 FFF7FEFF 		bl	HAL_NVIC_SetPriority
 196              	.LVL12:
  83:Src/can.c     ****         HAL_NVIC_SetPriority(CAN1_SCE_IRQn, 0, 0);
 197              		.loc 1 83 0
 198 0088 1520     		movs	r0, #21
 199 008a FFF7FEFF 		bl	HAL_NVIC_EnableIRQ
 200              	.LVL13:
  84:Src/can.c     ****         HAL_NVIC_EnableIRQ(CAN1_SCE_IRQn);
 201              		.loc 1 84 0
 202 008e 0022     		movs	r2, #0
 203 0090 1146     		mov	r1, r2
 204 0092 1620     		movs	r0, #22
 205 0094 FFF7FEFF 		bl	HAL_NVIC_SetPriority
 206              	.LVL14:
  85:Src/can.c     ****         /* USER CODE BEGIN CAN1_MspInit 1 */
 207              		.loc 1 85 0
 208 0098 1620     		movs	r0, #22
 209 009a FFF7FEFF 		bl	HAL_NVIC_EnableIRQ
 210              	.LVL15:
 211              		.loc 1 90 0
 212 009e BAE7     		b	.L7
 213              	.L12:
 214              		.align	2
 215              	.L11:
 216 00a0 00640040 		.word	1073767424
 217 00a4 000C0140 		.word	1073810432
 218 00a8 00000140 		.word	1073807360
 219              		.cfi_endproc
 220              	.LFE67:
 222              		.section	.text.HAL_CAN_MspDeInit,"ax",%progbits
 223              		.align	1
 224              		.global	HAL_CAN_MspDeInit
 225              		.syntax unified
 226              		.thumb
 227              		.thumb_func
 228              		.fpu softvfp
 230              	HAL_CAN_MspDeInit:
 231              	.LFB68:
  91:Src/can.c     **** 
  92:Src/can.c     **** void HAL_CAN_MspDeInit(CAN_HandleTypeDef* canHandle)
  93:Src/can.c     **** {
 232              		.loc 1 93 0
 233              		.cfi_startproc
 234              		@ args = 0, pretend = 0, frame = 0
 235              		@ frame_needed = 0, uses_anonymous_args = 0
 236              	.LVL16:
 237 0000 08B5     		push	{r3, lr}
 238              	.LCFI5:
 239              		.cfi_def_cfa_offset 8
 240              		.cfi_offset 3, -8
ARM GAS  C:\Users\Patrick\AppData\Local\Temp\ccRiqN9y.s 			page 7


 241              		.cfi_offset 14, -4
  94:Src/can.c     **** 
  95:Src/can.c     ****     if(canHandle->Instance==CAN1)
 242              		.loc 1 95 0
 243 0002 0268     		ldr	r2, [r0]
 244 0004 0A4B     		ldr	r3, .L17
 245 0006 9A42     		cmp	r2, r3
 246 0008 00D0     		beq	.L16
 247              	.LVL17:
 248              	.L13:
  96:Src/can.c     ****     {
  97:Src/can.c     ****         /* USER CODE BEGIN CAN1_MspDeInit 0 */
  98:Src/can.c     **** 
  99:Src/can.c     ****         /* USER CODE END CAN1_MspDeInit 0 */
 100:Src/can.c     ****         /* Peripheral clock disable */
 101:Src/can.c     ****         __HAL_RCC_CAN1_CLK_DISABLE();
 102:Src/can.c     **** 
 103:Src/can.c     ****         /**CAN GPIO Configuration
 104:Src/can.c     ****         PB8     ------> CAN_RX
 105:Src/can.c     ****         PB9     ------> CAN_TX
 106:Src/can.c     ****         */
 107:Src/can.c     ****         HAL_GPIO_DeInit(GPIOB, GPIO_PIN_8|GPIO_PIN_9);
 108:Src/can.c     **** 
 109:Src/can.c     ****         /* CAN1 interrupt Deinit */
 110:Src/can.c     ****         HAL_NVIC_DisableIRQ(CAN1_RX1_IRQn);
 111:Src/can.c     ****         HAL_NVIC_DisableIRQ(CAN1_SCE_IRQn);
 112:Src/can.c     ****         /* USER CODE BEGIN CAN1_MspDeInit 1 */
 113:Src/can.c     **** 
 114:Src/can.c     ****         /* USER CODE END CAN1_MspDeInit 1 */
 115:Src/can.c     ****     }
 116:Src/can.c     **** }
 249              		.loc 1 116 0
 250 000a 08BD     		pop	{r3, pc}
 251              	.LVL18:
 252              	.L16:
 101:Src/can.c     **** 
 253              		.loc 1 101 0
 254 000c 094A     		ldr	r2, .L17+4
 255 000e D369     		ldr	r3, [r2, #28]
 256 0010 23F00073 		bic	r3, r3, #33554432
 257 0014 D361     		str	r3, [r2, #28]
 107:Src/can.c     **** 
 258              		.loc 1 107 0
 259 0016 4FF44071 		mov	r1, #768
 260 001a 0748     		ldr	r0, .L17+8
 261              	.LVL19:
 262 001c FFF7FEFF 		bl	HAL_GPIO_DeInit
 263              	.LVL20:
 110:Src/can.c     ****         HAL_NVIC_DisableIRQ(CAN1_SCE_IRQn);
 264              		.loc 1 110 0
 265 0020 1520     		movs	r0, #21
 266 0022 FFF7FEFF 		bl	HAL_NVIC_DisableIRQ
 267              	.LVL21:
 111:Src/can.c     ****         /* USER CODE BEGIN CAN1_MspDeInit 1 */
 268              		.loc 1 111 0
 269 0026 1620     		movs	r0, #22
 270 0028 FFF7FEFF 		bl	HAL_NVIC_DisableIRQ
ARM GAS  C:\Users\Patrick\AppData\Local\Temp\ccRiqN9y.s 			page 8


 271              	.LVL22:
 272              		.loc 1 116 0
 273 002c EDE7     		b	.L13
 274              	.L18:
 275 002e 00BF     		.align	2
 276              	.L17:
 277 0030 00640040 		.word	1073767424
 278 0034 00100240 		.word	1073876992
 279 0038 000C0140 		.word	1073810432
 280              		.cfi_endproc
 281              	.LFE68:
 283              		.comm	pHeader,28,4
 284              		.comm	hcan,40,4
 285              		.text
 286              	.Letext0:
 287              		.file 2 "c:\\program files (x86)\\embedded toolchain\\gnu tools arm embedded\\7 2017-q4-major\\arm
 288              		.file 3 "c:\\program files (x86)\\embedded toolchain\\gnu tools arm embedded\\7 2017-q4-major\\arm
 289              		.file 4 "Drivers/CMSIS/Include/core_cm3.h"
 290              		.file 5 "Drivers/CMSIS/Device/ST/STM32F1xx/Include/system_stm32f1xx.h"
 291              		.file 6 "Drivers/CMSIS/Device/ST/STM32F1xx/Include/stm32f103xb.h"
 292              		.file 7 "Drivers/CMSIS/Device/ST/STM32F1xx/Include/stm32f1xx.h"
 293              		.file 8 "c:\\program files (x86)\\embedded toolchain\\gnu tools arm embedded\\7 2017-q4-major\\arm
 294              		.file 9 "c:\\program files (x86)\\embedded toolchain\\gnu tools arm embedded\\7 2017-q4-major\\arm
 295              		.file 10 "c:\\program files (x86)\\embedded toolchain\\gnu tools arm embedded\\7 2017-q4-major\\li
 296              		.file 11 "c:\\program files (x86)\\embedded toolchain\\gnu tools arm embedded\\7 2017-q4-major\\ar
 297              		.file 12 "Drivers/STM32F1xx_HAL_Driver/Inc/stm32f1xx_hal_def.h"
 298              		.file 13 "Drivers/STM32F1xx_HAL_Driver/Inc/stm32f1xx_hal_gpio.h"
 299              		.file 14 "Drivers/STM32F1xx_HAL_Driver/Inc/stm32f1xx_hal_can.h"
 300              		.file 15 "Drivers/STM32F1xx_HAL_Driver/Inc/stm32f1xx_hal.h"
 301              		.file 16 "Inc/can.h"
 302              		.file 17 "Drivers/STM32F1xx_HAL_Driver/Inc/stm32f1xx_hal_cortex.h"
 303              		.file 18 "Inc/main.h"
ARM GAS  C:\Users\Patrick\AppData\Local\Temp\ccRiqN9y.s 			page 9

