ARM GAS  C:\Users\Patrick\AppData\Local\Temp\ccglEv4N.s 			page 1


   1              		.cpu cortex-m3
   2              		.eabi_attribute 20, 1
   3              		.eabi_attribute 21, 1
   4              		.eabi_attribute 23, 3
   5              		.eabi_attribute 24, 1
   6              		.eabi_attribute 25, 1
   7              		.eabi_attribute 26, 1
   8              		.eabi_attribute 30, 1
   9              		.eabi_attribute 34, 1
  10              		.eabi_attribute 18, 4
  11              		.file	"stm32f1xx_it.c"
  12              		.text
  13              	.Ltext0:
  14              		.cfi_sections	.debug_frame
  15              		.section	.text.NMI_Handler,"ax",%progbits
  16              		.align	1
  17              		.global	NMI_Handler
  18              		.syntax unified
  19              		.thumb
  20              		.thumb_func
  21              		.fpu softvfp
  23              	NMI_Handler:
  24              	.LFB66:
  25              		.file 1 "Src/stm32f1xx_it.c"
   1:Src/stm32f1xx_it.c **** /* USER CODE BEGIN Header */
   2:Src/stm32f1xx_it.c **** /**
   3:Src/stm32f1xx_it.c ****   ******************************************************************************
   4:Src/stm32f1xx_it.c ****   * @file    stm32f1xx_it.c
   5:Src/stm32f1xx_it.c ****   * @brief   Interrupt Service Routines.
   6:Src/stm32f1xx_it.c ****   ******************************************************************************
   7:Src/stm32f1xx_it.c ****   * @attention
   8:Src/stm32f1xx_it.c ****   *
   9:Src/stm32f1xx_it.c ****   * <h2><center>&copy; Copyright (c) 2019 STMicroelectronics.
  10:Src/stm32f1xx_it.c ****   * All rights reserved.</center></h2>
  11:Src/stm32f1xx_it.c ****   *
  12:Src/stm32f1xx_it.c ****   * This software component is licensed by ST under BSD 3-Clause license,
  13:Src/stm32f1xx_it.c ****   * the "License"; You may not use this file except in compliance with the
  14:Src/stm32f1xx_it.c ****   * License. You may obtain a copy of the License at:
  15:Src/stm32f1xx_it.c ****   *                        opensource.org/licenses/BSD-3-Clause
  16:Src/stm32f1xx_it.c ****   *
  17:Src/stm32f1xx_it.c ****   ******************************************************************************
  18:Src/stm32f1xx_it.c ****   */
  19:Src/stm32f1xx_it.c **** /* USER CODE END Header */
  20:Src/stm32f1xx_it.c **** 
  21:Src/stm32f1xx_it.c **** /* Includes ------------------------------------------------------------------*/
  22:Src/stm32f1xx_it.c **** #include "main.h"
  23:Src/stm32f1xx_it.c **** #include "stm32f1xx_it.h"
  24:Src/stm32f1xx_it.c **** /* Private includes ----------------------------------------------------------*/
  25:Src/stm32f1xx_it.c **** /* USER CODE BEGIN Includes */
  26:Src/stm32f1xx_it.c **** /* USER CODE END Includes */
  27:Src/stm32f1xx_it.c **** 
  28:Src/stm32f1xx_it.c **** /* Private typedef -----------------------------------------------------------*/
  29:Src/stm32f1xx_it.c **** /* USER CODE BEGIN TD */
  30:Src/stm32f1xx_it.c **** 
  31:Src/stm32f1xx_it.c **** /* USER CODE END TD */
  32:Src/stm32f1xx_it.c **** 
  33:Src/stm32f1xx_it.c **** /* Private define ------------------------------------------------------------*/
ARM GAS  C:\Users\Patrick\AppData\Local\Temp\ccglEv4N.s 			page 2


  34:Src/stm32f1xx_it.c **** /* USER CODE BEGIN PD */
  35:Src/stm32f1xx_it.c ****  
  36:Src/stm32f1xx_it.c **** /* USER CODE END PD */
  37:Src/stm32f1xx_it.c **** 
  38:Src/stm32f1xx_it.c **** /* Private macro -------------------------------------------------------------*/
  39:Src/stm32f1xx_it.c **** /* USER CODE BEGIN PM */
  40:Src/stm32f1xx_it.c **** 
  41:Src/stm32f1xx_it.c **** /* USER CODE END PM */
  42:Src/stm32f1xx_it.c **** 
  43:Src/stm32f1xx_it.c **** /* Private variables ---------------------------------------------------------*/
  44:Src/stm32f1xx_it.c **** /* USER CODE BEGIN PV */
  45:Src/stm32f1xx_it.c **** 
  46:Src/stm32f1xx_it.c **** /* USER CODE END PV */
  47:Src/stm32f1xx_it.c **** 
  48:Src/stm32f1xx_it.c **** /* Private function prototypes -----------------------------------------------*/
  49:Src/stm32f1xx_it.c **** /* USER CODE BEGIN PFP */
  50:Src/stm32f1xx_it.c **** 
  51:Src/stm32f1xx_it.c **** /* USER CODE END PFP */
  52:Src/stm32f1xx_it.c **** 
  53:Src/stm32f1xx_it.c **** /* Private user code ---------------------------------------------------------*/
  54:Src/stm32f1xx_it.c **** /* USER CODE BEGIN 0 */
  55:Src/stm32f1xx_it.c **** 
  56:Src/stm32f1xx_it.c **** /* USER CODE END 0 */
  57:Src/stm32f1xx_it.c **** 
  58:Src/stm32f1xx_it.c **** /* External variables --------------------------------------------------------*/
  59:Src/stm32f1xx_it.c **** extern DMA_HandleTypeDef hdma_adc1;
  60:Src/stm32f1xx_it.c **** extern ADC_HandleTypeDef hadc1;
  61:Src/stm32f1xx_it.c **** extern I2C_HandleTypeDef hi2c1;
  62:Src/stm32f1xx_it.c **** extern TIM_HandleTypeDef htim3;
  63:Src/stm32f1xx_it.c **** extern DMA_HandleTypeDef hdma_usart3_rx;
  64:Src/stm32f1xx_it.c **** extern DMA_HandleTypeDef hdma_usart3_tx;
  65:Src/stm32f1xx_it.c **** extern UART_HandleTypeDef huart3;
  66:Src/stm32f1xx_it.c **** /* USER CODE BEGIN EV */
  67:Src/stm32f1xx_it.c **** 
  68:Src/stm32f1xx_it.c **** /* USER CODE END EV */
  69:Src/stm32f1xx_it.c **** 
  70:Src/stm32f1xx_it.c **** /******************************************************************************/
  71:Src/stm32f1xx_it.c **** /*           Cortex-M3 Processor Interruption and Exception Handlers          */ 
  72:Src/stm32f1xx_it.c **** /******************************************************************************/
  73:Src/stm32f1xx_it.c **** /**
  74:Src/stm32f1xx_it.c ****   * @brief This function handles Non maskable interrupt.
  75:Src/stm32f1xx_it.c ****   */
  76:Src/stm32f1xx_it.c **** void NMI_Handler(void)
  77:Src/stm32f1xx_it.c **** {
  26              		.loc 1 77 0
  27              		.cfi_startproc
  28              		@ args = 0, pretend = 0, frame = 0
  29              		@ frame_needed = 0, uses_anonymous_args = 0
  30              		@ link register save eliminated.
  78:Src/stm32f1xx_it.c ****   /* USER CODE BEGIN NonMaskableInt_IRQn 0 */
  79:Src/stm32f1xx_it.c **** 
  80:Src/stm32f1xx_it.c ****   /* USER CODE END NonMaskableInt_IRQn 0 */
  81:Src/stm32f1xx_it.c ****   /* USER CODE BEGIN NonMaskableInt_IRQn 1 */
  82:Src/stm32f1xx_it.c **** 
  83:Src/stm32f1xx_it.c ****   /* USER CODE END NonMaskableInt_IRQn 1 */
  84:Src/stm32f1xx_it.c **** }
  31              		.loc 1 84 0
ARM GAS  C:\Users\Patrick\AppData\Local\Temp\ccglEv4N.s 			page 3


  32 0000 7047     		bx	lr
  33              		.cfi_endproc
  34              	.LFE66:
  36              		.section	.text.HardFault_Handler,"ax",%progbits
  37              		.align	1
  38              		.global	HardFault_Handler
  39              		.syntax unified
  40              		.thumb
  41              		.thumb_func
  42              		.fpu softvfp
  44              	HardFault_Handler:
  45              	.LFB67:
  85:Src/stm32f1xx_it.c **** 
  86:Src/stm32f1xx_it.c **** /**
  87:Src/stm32f1xx_it.c ****   * @brief This function handles Hard fault interrupt.
  88:Src/stm32f1xx_it.c ****   */
  89:Src/stm32f1xx_it.c **** void HardFault_Handler(void)
  90:Src/stm32f1xx_it.c **** {
  46              		.loc 1 90 0
  47              		.cfi_startproc
  48              		@ Volatile: function does not return.
  49              		@ args = 0, pretend = 0, frame = 0
  50              		@ frame_needed = 0, uses_anonymous_args = 0
  51              		@ link register save eliminated.
  52              	.L3:
  53 0000 FEE7     		b	.L3
  54              		.cfi_endproc
  55              	.LFE67:
  57              		.section	.text.MemManage_Handler,"ax",%progbits
  58              		.align	1
  59              		.global	MemManage_Handler
  60              		.syntax unified
  61              		.thumb
  62              		.thumb_func
  63              		.fpu softvfp
  65              	MemManage_Handler:
  66              	.LFB68:
  91:Src/stm32f1xx_it.c ****   /* USER CODE BEGIN HardFault_IRQn 0 */
  92:Src/stm32f1xx_it.c **** 
  93:Src/stm32f1xx_it.c ****   /* USER CODE END HardFault_IRQn 0 */
  94:Src/stm32f1xx_it.c ****   while (1)
  95:Src/stm32f1xx_it.c ****   {
  96:Src/stm32f1xx_it.c ****     /* USER CODE BEGIN W1_HardFault_IRQn 0 */
  97:Src/stm32f1xx_it.c ****     /* USER CODE END W1_HardFault_IRQn 0 */
  98:Src/stm32f1xx_it.c ****   }
  99:Src/stm32f1xx_it.c **** }
 100:Src/stm32f1xx_it.c **** 
 101:Src/stm32f1xx_it.c **** /**
 102:Src/stm32f1xx_it.c ****   * @brief This function handles Memory management fault.
 103:Src/stm32f1xx_it.c ****   */
 104:Src/stm32f1xx_it.c **** void MemManage_Handler(void)
 105:Src/stm32f1xx_it.c **** {
  67              		.loc 1 105 0
  68              		.cfi_startproc
  69              		@ Volatile: function does not return.
  70              		@ args = 0, pretend = 0, frame = 0
  71              		@ frame_needed = 0, uses_anonymous_args = 0
ARM GAS  C:\Users\Patrick\AppData\Local\Temp\ccglEv4N.s 			page 4


  72              		@ link register save eliminated.
  73              	.L5:
  74 0000 FEE7     		b	.L5
  75              		.cfi_endproc
  76              	.LFE68:
  78              		.section	.text.BusFault_Handler,"ax",%progbits
  79              		.align	1
  80              		.global	BusFault_Handler
  81              		.syntax unified
  82              		.thumb
  83              		.thumb_func
  84              		.fpu softvfp
  86              	BusFault_Handler:
  87              	.LFB69:
 106:Src/stm32f1xx_it.c ****   /* USER CODE BEGIN MemoryManagement_IRQn 0 */
 107:Src/stm32f1xx_it.c **** 
 108:Src/stm32f1xx_it.c ****   /* USER CODE END MemoryManagement_IRQn 0 */
 109:Src/stm32f1xx_it.c ****   while (1)
 110:Src/stm32f1xx_it.c ****   {
 111:Src/stm32f1xx_it.c ****     /* USER CODE BEGIN W1_MemoryManagement_IRQn 0 */
 112:Src/stm32f1xx_it.c ****     /* USER CODE END W1_MemoryManagement_IRQn 0 */
 113:Src/stm32f1xx_it.c ****   }
 114:Src/stm32f1xx_it.c **** }
 115:Src/stm32f1xx_it.c **** 
 116:Src/stm32f1xx_it.c **** /**
 117:Src/stm32f1xx_it.c ****   * @brief This function handles Prefetch fault, memory access fault.
 118:Src/stm32f1xx_it.c ****   */
 119:Src/stm32f1xx_it.c **** void BusFault_Handler(void)
 120:Src/stm32f1xx_it.c **** {
  88              		.loc 1 120 0
  89              		.cfi_startproc
  90              		@ Volatile: function does not return.
  91              		@ args = 0, pretend = 0, frame = 0
  92              		@ frame_needed = 0, uses_anonymous_args = 0
  93              		@ link register save eliminated.
  94              	.L7:
  95 0000 FEE7     		b	.L7
  96              		.cfi_endproc
  97              	.LFE69:
  99              		.section	.text.UsageFault_Handler,"ax",%progbits
 100              		.align	1
 101              		.global	UsageFault_Handler
 102              		.syntax unified
 103              		.thumb
 104              		.thumb_func
 105              		.fpu softvfp
 107              	UsageFault_Handler:
 108              	.LFB70:
 121:Src/stm32f1xx_it.c ****   /* USER CODE BEGIN BusFault_IRQn 0 */
 122:Src/stm32f1xx_it.c **** 
 123:Src/stm32f1xx_it.c ****   /* USER CODE END BusFault_IRQn 0 */
 124:Src/stm32f1xx_it.c ****   while (1)
 125:Src/stm32f1xx_it.c ****   {
 126:Src/stm32f1xx_it.c ****     /* USER CODE BEGIN W1_BusFault_IRQn 0 */
 127:Src/stm32f1xx_it.c ****     /* USER CODE END W1_BusFault_IRQn 0 */
 128:Src/stm32f1xx_it.c ****   }
 129:Src/stm32f1xx_it.c **** }
ARM GAS  C:\Users\Patrick\AppData\Local\Temp\ccglEv4N.s 			page 5


 130:Src/stm32f1xx_it.c **** 
 131:Src/stm32f1xx_it.c **** /**
 132:Src/stm32f1xx_it.c ****   * @brief This function handles Undefined instruction or illegal state.
 133:Src/stm32f1xx_it.c ****   */
 134:Src/stm32f1xx_it.c **** void UsageFault_Handler(void)
 135:Src/stm32f1xx_it.c **** {
 109              		.loc 1 135 0
 110              		.cfi_startproc
 111              		@ Volatile: function does not return.
 112              		@ args = 0, pretend = 0, frame = 0
 113              		@ frame_needed = 0, uses_anonymous_args = 0
 114              		@ link register save eliminated.
 115              	.L9:
 116 0000 FEE7     		b	.L9
 117              		.cfi_endproc
 118              	.LFE70:
 120              		.section	.text.SVC_Handler,"ax",%progbits
 121              		.align	1
 122              		.global	SVC_Handler
 123              		.syntax unified
 124              		.thumb
 125              		.thumb_func
 126              		.fpu softvfp
 128              	SVC_Handler:
 129              	.LFB71:
 136:Src/stm32f1xx_it.c ****   /* USER CODE BEGIN UsageFault_IRQn 0 */
 137:Src/stm32f1xx_it.c **** 
 138:Src/stm32f1xx_it.c ****   /* USER CODE END UsageFault_IRQn 0 */
 139:Src/stm32f1xx_it.c ****   while (1)
 140:Src/stm32f1xx_it.c ****   {
 141:Src/stm32f1xx_it.c ****     /* USER CODE BEGIN W1_UsageFault_IRQn 0 */
 142:Src/stm32f1xx_it.c ****     /* USER CODE END W1_UsageFault_IRQn 0 */
 143:Src/stm32f1xx_it.c ****   }
 144:Src/stm32f1xx_it.c **** }
 145:Src/stm32f1xx_it.c **** 
 146:Src/stm32f1xx_it.c **** /**
 147:Src/stm32f1xx_it.c ****   * @brief This function handles System service call via SWI instruction.
 148:Src/stm32f1xx_it.c ****   */
 149:Src/stm32f1xx_it.c **** void SVC_Handler(void)
 150:Src/stm32f1xx_it.c **** {
 130              		.loc 1 150 0
 131              		.cfi_startproc
 132              		@ args = 0, pretend = 0, frame = 0
 133              		@ frame_needed = 0, uses_anonymous_args = 0
 134              		@ link register save eliminated.
 151:Src/stm32f1xx_it.c ****   /* USER CODE BEGIN SVCall_IRQn 0 */
 152:Src/stm32f1xx_it.c **** 
 153:Src/stm32f1xx_it.c ****   /* USER CODE END SVCall_IRQn 0 */
 154:Src/stm32f1xx_it.c ****   /* USER CODE BEGIN SVCall_IRQn 1 */
 155:Src/stm32f1xx_it.c **** 
 156:Src/stm32f1xx_it.c ****   /* USER CODE END SVCall_IRQn 1 */
 157:Src/stm32f1xx_it.c **** }
 135              		.loc 1 157 0
 136 0000 7047     		bx	lr
 137              		.cfi_endproc
 138              	.LFE71:
 140              		.section	.text.DebugMon_Handler,"ax",%progbits
ARM GAS  C:\Users\Patrick\AppData\Local\Temp\ccglEv4N.s 			page 6


 141              		.align	1
 142              		.global	DebugMon_Handler
 143              		.syntax unified
 144              		.thumb
 145              		.thumb_func
 146              		.fpu softvfp
 148              	DebugMon_Handler:
 149              	.LFB72:
 158:Src/stm32f1xx_it.c **** 
 159:Src/stm32f1xx_it.c **** /**
 160:Src/stm32f1xx_it.c ****   * @brief This function handles Debug monitor.
 161:Src/stm32f1xx_it.c ****   */
 162:Src/stm32f1xx_it.c **** void DebugMon_Handler(void)
 163:Src/stm32f1xx_it.c **** {
 150              		.loc 1 163 0
 151              		.cfi_startproc
 152              		@ args = 0, pretend = 0, frame = 0
 153              		@ frame_needed = 0, uses_anonymous_args = 0
 154              		@ link register save eliminated.
 164:Src/stm32f1xx_it.c ****   /* USER CODE BEGIN DebugMonitor_IRQn 0 */
 165:Src/stm32f1xx_it.c **** 
 166:Src/stm32f1xx_it.c ****   /* USER CODE END DebugMonitor_IRQn 0 */
 167:Src/stm32f1xx_it.c ****   /* USER CODE BEGIN DebugMonitor_IRQn 1 */
 168:Src/stm32f1xx_it.c **** 
 169:Src/stm32f1xx_it.c ****   /* USER CODE END DebugMonitor_IRQn 1 */
 170:Src/stm32f1xx_it.c **** }
 155              		.loc 1 170 0
 156 0000 7047     		bx	lr
 157              		.cfi_endproc
 158              	.LFE72:
 160              		.section	.text.PendSV_Handler,"ax",%progbits
 161              		.align	1
 162              		.global	PendSV_Handler
 163              		.syntax unified
 164              		.thumb
 165              		.thumb_func
 166              		.fpu softvfp
 168              	PendSV_Handler:
 169              	.LFB73:
 171:Src/stm32f1xx_it.c **** 
 172:Src/stm32f1xx_it.c **** /**
 173:Src/stm32f1xx_it.c ****   * @brief This function handles Pendable request for system service.
 174:Src/stm32f1xx_it.c ****   */
 175:Src/stm32f1xx_it.c **** void PendSV_Handler(void)
 176:Src/stm32f1xx_it.c **** {
 170              		.loc 1 176 0
 171              		.cfi_startproc
 172              		@ args = 0, pretend = 0, frame = 0
 173              		@ frame_needed = 0, uses_anonymous_args = 0
 174              		@ link register save eliminated.
 177:Src/stm32f1xx_it.c ****   /* USER CODE BEGIN PendSV_IRQn 0 */
 178:Src/stm32f1xx_it.c **** 
 179:Src/stm32f1xx_it.c ****   /* USER CODE END PendSV_IRQn 0 */
 180:Src/stm32f1xx_it.c ****   /* USER CODE BEGIN PendSV_IRQn 1 */
 181:Src/stm32f1xx_it.c **** 
 182:Src/stm32f1xx_it.c ****   /* USER CODE END PendSV_IRQn 1 */
 183:Src/stm32f1xx_it.c **** }
ARM GAS  C:\Users\Patrick\AppData\Local\Temp\ccglEv4N.s 			page 7


 175              		.loc 1 183 0
 176 0000 7047     		bx	lr
 177              		.cfi_endproc
 178              	.LFE73:
 180              		.section	.text.SysTick_Handler,"ax",%progbits
 181              		.align	1
 182              		.global	SysTick_Handler
 183              		.syntax unified
 184              		.thumb
 185              		.thumb_func
 186              		.fpu softvfp
 188              	SysTick_Handler:
 189              	.LFB74:
 184:Src/stm32f1xx_it.c **** 
 185:Src/stm32f1xx_it.c **** /**
 186:Src/stm32f1xx_it.c ****   * @brief This function handles System tick timer.
 187:Src/stm32f1xx_it.c ****   */
 188:Src/stm32f1xx_it.c **** void SysTick_Handler(void)
 189:Src/stm32f1xx_it.c **** {
 190              		.loc 1 189 0
 191              		.cfi_startproc
 192              		@ args = 0, pretend = 0, frame = 0
 193              		@ frame_needed = 0, uses_anonymous_args = 0
 194 0000 08B5     		push	{r3, lr}
 195              	.LCFI0:
 196              		.cfi_def_cfa_offset 8
 197              		.cfi_offset 3, -8
 198              		.cfi_offset 14, -4
 190:Src/stm32f1xx_it.c ****   /* USER CODE BEGIN SysTick_IRQn 0 */
 191:Src/stm32f1xx_it.c **** 
 192:Src/stm32f1xx_it.c ****   /* USER CODE END SysTick_IRQn 0 */
 193:Src/stm32f1xx_it.c ****   HAL_IncTick();
 199              		.loc 1 193 0
 200 0002 FFF7FEFF 		bl	HAL_IncTick
 201              	.LVL0:
 194:Src/stm32f1xx_it.c ****   /* USER CODE BEGIN SysTick_IRQn 1 */
 195:Src/stm32f1xx_it.c **** 
 196:Src/stm32f1xx_it.c ****   /* USER CODE END SysTick_IRQn 1 */
 197:Src/stm32f1xx_it.c **** }
 202              		.loc 1 197 0
 203 0006 08BD     		pop	{r3, pc}
 204              		.cfi_endproc
 205              	.LFE74:
 207              		.section	.text.DMA1_Channel1_IRQHandler,"ax",%progbits
 208              		.align	1
 209              		.global	DMA1_Channel1_IRQHandler
 210              		.syntax unified
 211              		.thumb
 212              		.thumb_func
 213              		.fpu softvfp
 215              	DMA1_Channel1_IRQHandler:
 216              	.LFB75:
 198:Src/stm32f1xx_it.c **** 
 199:Src/stm32f1xx_it.c **** /******************************************************************************/
 200:Src/stm32f1xx_it.c **** /* STM32F1xx Peripheral Interrupt Handlers                                    */
 201:Src/stm32f1xx_it.c **** /* Add here the Interrupt Handlers for the used peripherals.                  */
 202:Src/stm32f1xx_it.c **** /* For the available peripheral interrupt handler names,                      */
ARM GAS  C:\Users\Patrick\AppData\Local\Temp\ccglEv4N.s 			page 8


 203:Src/stm32f1xx_it.c **** /* please refer to the startup file (startup_stm32f1xx.s).                    */
 204:Src/stm32f1xx_it.c **** /******************************************************************************/
 205:Src/stm32f1xx_it.c **** 
 206:Src/stm32f1xx_it.c **** /**
 207:Src/stm32f1xx_it.c ****   * @brief This function handles DMA1 channel1 global interrupt.
 208:Src/stm32f1xx_it.c ****   */
 209:Src/stm32f1xx_it.c **** void DMA1_Channel1_IRQHandler(void)
 210:Src/stm32f1xx_it.c **** {
 217              		.loc 1 210 0
 218              		.cfi_startproc
 219              		@ args = 0, pretend = 0, frame = 0
 220              		@ frame_needed = 0, uses_anonymous_args = 0
 221 0000 08B5     		push	{r3, lr}
 222              	.LCFI1:
 223              		.cfi_def_cfa_offset 8
 224              		.cfi_offset 3, -8
 225              		.cfi_offset 14, -4
 211:Src/stm32f1xx_it.c ****   /* USER CODE BEGIN DMA1_Channel1_IRQn 0 */
 212:Src/stm32f1xx_it.c **** 
 213:Src/stm32f1xx_it.c ****   /* USER CODE END DMA1_Channel1_IRQn 0 */
 214:Src/stm32f1xx_it.c ****   HAL_DMA_IRQHandler(&hdma_adc1);
 226              		.loc 1 214 0
 227 0002 0248     		ldr	r0, .L17
 228 0004 FFF7FEFF 		bl	HAL_DMA_IRQHandler
 229              	.LVL1:
 215:Src/stm32f1xx_it.c ****   /* USER CODE BEGIN DMA1_Channel1_IRQn 1 */
 216:Src/stm32f1xx_it.c **** 
 217:Src/stm32f1xx_it.c ****   /* USER CODE END DMA1_Channel1_IRQn 1 */
 218:Src/stm32f1xx_it.c **** }
 230              		.loc 1 218 0
 231 0008 08BD     		pop	{r3, pc}
 232              	.L18:
 233 000a 00BF     		.align	2
 234              	.L17:
 235 000c 00000000 		.word	hdma_adc1
 236              		.cfi_endproc
 237              	.LFE75:
 239              		.section	.text.DMA1_Channel2_IRQHandler,"ax",%progbits
 240              		.align	1
 241              		.global	DMA1_Channel2_IRQHandler
 242              		.syntax unified
 243              		.thumb
 244              		.thumb_func
 245              		.fpu softvfp
 247              	DMA1_Channel2_IRQHandler:
 248              	.LFB76:
 219:Src/stm32f1xx_it.c **** 
 220:Src/stm32f1xx_it.c **** /**
 221:Src/stm32f1xx_it.c ****   * @brief This function handles DMA1 channel2 global interrupt.
 222:Src/stm32f1xx_it.c ****   */
 223:Src/stm32f1xx_it.c **** void DMA1_Channel2_IRQHandler(void)
 224:Src/stm32f1xx_it.c **** {
 249              		.loc 1 224 0
 250              		.cfi_startproc
 251              		@ args = 0, pretend = 0, frame = 0
 252              		@ frame_needed = 0, uses_anonymous_args = 0
 253 0000 08B5     		push	{r3, lr}
ARM GAS  C:\Users\Patrick\AppData\Local\Temp\ccglEv4N.s 			page 9


 254              	.LCFI2:
 255              		.cfi_def_cfa_offset 8
 256              		.cfi_offset 3, -8
 257              		.cfi_offset 14, -4
 225:Src/stm32f1xx_it.c ****   /* USER CODE BEGIN DMA1_Channel2_IRQn 0 */
 226:Src/stm32f1xx_it.c **** 
 227:Src/stm32f1xx_it.c ****   /* USER CODE END DMA1_Channel2_IRQn 0 */
 228:Src/stm32f1xx_it.c ****   HAL_DMA_IRQHandler(&hdma_usart3_tx);
 258              		.loc 1 228 0
 259 0002 0248     		ldr	r0, .L21
 260 0004 FFF7FEFF 		bl	HAL_DMA_IRQHandler
 261              	.LVL2:
 229:Src/stm32f1xx_it.c ****   /* USER CODE BEGIN DMA1_Channel2_IRQn 1 */
 230:Src/stm32f1xx_it.c **** 
 231:Src/stm32f1xx_it.c ****   /* USER CODE END DMA1_Channel2_IRQn 1 */
 232:Src/stm32f1xx_it.c **** }
 262              		.loc 1 232 0
 263 0008 08BD     		pop	{r3, pc}
 264              	.L22:
 265 000a 00BF     		.align	2
 266              	.L21:
 267 000c 00000000 		.word	hdma_usart3_tx
 268              		.cfi_endproc
 269              	.LFE76:
 271              		.section	.text.DMA1_Channel3_IRQHandler,"ax",%progbits
 272              		.align	1
 273              		.global	DMA1_Channel3_IRQHandler
 274              		.syntax unified
 275              		.thumb
 276              		.thumb_func
 277              		.fpu softvfp
 279              	DMA1_Channel3_IRQHandler:
 280              	.LFB77:
 233:Src/stm32f1xx_it.c **** 
 234:Src/stm32f1xx_it.c **** /**
 235:Src/stm32f1xx_it.c ****   * @brief This function handles DMA1 channel3 global interrupt.
 236:Src/stm32f1xx_it.c ****   */
 237:Src/stm32f1xx_it.c **** void DMA1_Channel3_IRQHandler(void)
 238:Src/stm32f1xx_it.c **** {
 281              		.loc 1 238 0
 282              		.cfi_startproc
 283              		@ args = 0, pretend = 0, frame = 0
 284              		@ frame_needed = 0, uses_anonymous_args = 0
 285 0000 08B5     		push	{r3, lr}
 286              	.LCFI3:
 287              		.cfi_def_cfa_offset 8
 288              		.cfi_offset 3, -8
 289              		.cfi_offset 14, -4
 239:Src/stm32f1xx_it.c ****   /* USER CODE BEGIN DMA1_Channel3_IRQn 0 */
 240:Src/stm32f1xx_it.c **** 
 241:Src/stm32f1xx_it.c ****   /* USER CODE END DMA1_Channel3_IRQn 0 */
 242:Src/stm32f1xx_it.c ****   HAL_DMA_IRQHandler(&hdma_usart3_rx);
 290              		.loc 1 242 0
 291 0002 0248     		ldr	r0, .L25
 292 0004 FFF7FEFF 		bl	HAL_DMA_IRQHandler
 293              	.LVL3:
 243:Src/stm32f1xx_it.c ****   /* USER CODE BEGIN DMA1_Channel3_IRQn 1 */
ARM GAS  C:\Users\Patrick\AppData\Local\Temp\ccglEv4N.s 			page 10


 244:Src/stm32f1xx_it.c **** 
 245:Src/stm32f1xx_it.c ****   /* USER CODE END DMA1_Channel3_IRQn 1 */
 246:Src/stm32f1xx_it.c **** }
 294              		.loc 1 246 0
 295 0008 08BD     		pop	{r3, pc}
 296              	.L26:
 297 000a 00BF     		.align	2
 298              	.L25:
 299 000c 00000000 		.word	hdma_usart3_rx
 300              		.cfi_endproc
 301              	.LFE77:
 303              		.section	.text.ADC1_2_IRQHandler,"ax",%progbits
 304              		.align	1
 305              		.global	ADC1_2_IRQHandler
 306              		.syntax unified
 307              		.thumb
 308              		.thumb_func
 309              		.fpu softvfp
 311              	ADC1_2_IRQHandler:
 312              	.LFB78:
 247:Src/stm32f1xx_it.c **** 
 248:Src/stm32f1xx_it.c **** /**
 249:Src/stm32f1xx_it.c ****   * @brief This function handles ADC1 and ADC2 global interrupts.
 250:Src/stm32f1xx_it.c ****   */
 251:Src/stm32f1xx_it.c **** void ADC1_2_IRQHandler(void)
 252:Src/stm32f1xx_it.c **** {
 313              		.loc 1 252 0
 314              		.cfi_startproc
 315              		@ args = 0, pretend = 0, frame = 0
 316              		@ frame_needed = 0, uses_anonymous_args = 0
 317 0000 08B5     		push	{r3, lr}
 318              	.LCFI4:
 319              		.cfi_def_cfa_offset 8
 320              		.cfi_offset 3, -8
 321              		.cfi_offset 14, -4
 253:Src/stm32f1xx_it.c ****   /* USER CODE BEGIN ADC1_2_IRQn 0 */
 254:Src/stm32f1xx_it.c **** 
 255:Src/stm32f1xx_it.c ****   /* USER CODE END ADC1_2_IRQn 0 */
 256:Src/stm32f1xx_it.c ****   HAL_ADC_IRQHandler(&hadc1);
 322              		.loc 1 256 0
 323 0002 0248     		ldr	r0, .L29
 324 0004 FFF7FEFF 		bl	HAL_ADC_IRQHandler
 325              	.LVL4:
 257:Src/stm32f1xx_it.c ****   /* USER CODE BEGIN ADC1_2_IRQn 1 */
 258:Src/stm32f1xx_it.c **** 
 259:Src/stm32f1xx_it.c ****   /* USER CODE END ADC1_2_IRQn 1 */
 260:Src/stm32f1xx_it.c **** }
 326              		.loc 1 260 0
 327 0008 08BD     		pop	{r3, pc}
 328              	.L30:
 329 000a 00BF     		.align	2
 330              	.L29:
 331 000c 00000000 		.word	hadc1
 332              		.cfi_endproc
 333              	.LFE78:
 335              		.section	.text.TIM3_IRQHandler,"ax",%progbits
 336              		.align	1
ARM GAS  C:\Users\Patrick\AppData\Local\Temp\ccglEv4N.s 			page 11


 337              		.global	TIM3_IRQHandler
 338              		.syntax unified
 339              		.thumb
 340              		.thumb_func
 341              		.fpu softvfp
 343              	TIM3_IRQHandler:
 344              	.LFB79:
 261:Src/stm32f1xx_it.c **** 
 262:Src/stm32f1xx_it.c **** /**
 263:Src/stm32f1xx_it.c ****   * @brief This function handles TIM3 global interrupt.
 264:Src/stm32f1xx_it.c ****   */
 265:Src/stm32f1xx_it.c **** void TIM3_IRQHandler(void)
 266:Src/stm32f1xx_it.c **** {
 345              		.loc 1 266 0
 346              		.cfi_startproc
 347              		@ args = 0, pretend = 0, frame = 0
 348              		@ frame_needed = 0, uses_anonymous_args = 0
 349 0000 08B5     		push	{r3, lr}
 350              	.LCFI5:
 351              		.cfi_def_cfa_offset 8
 352              		.cfi_offset 3, -8
 353              		.cfi_offset 14, -4
 267:Src/stm32f1xx_it.c ****   /* USER CODE BEGIN TIM3_IRQn 0 */
 268:Src/stm32f1xx_it.c **** 
 269:Src/stm32f1xx_it.c ****   /* USER CODE END TIM3_IRQn 0 */
 270:Src/stm32f1xx_it.c ****   HAL_TIM_IRQHandler(&htim3);
 354              		.loc 1 270 0
 355 0002 0248     		ldr	r0, .L33
 356 0004 FFF7FEFF 		bl	HAL_TIM_IRQHandler
 357              	.LVL5:
 271:Src/stm32f1xx_it.c ****   /* USER CODE BEGIN TIM3_IRQn 1 */
 272:Src/stm32f1xx_it.c **** 
 273:Src/stm32f1xx_it.c ****   /* USER CODE END TIM3_IRQn 1 */
 274:Src/stm32f1xx_it.c **** }
 358              		.loc 1 274 0
 359 0008 08BD     		pop	{r3, pc}
 360              	.L34:
 361 000a 00BF     		.align	2
 362              	.L33:
 363 000c 00000000 		.word	htim3
 364              		.cfi_endproc
 365              	.LFE79:
 367              		.section	.text.I2C1_EV_IRQHandler,"ax",%progbits
 368              		.align	1
 369              		.global	I2C1_EV_IRQHandler
 370              		.syntax unified
 371              		.thumb
 372              		.thumb_func
 373              		.fpu softvfp
 375              	I2C1_EV_IRQHandler:
 376              	.LFB80:
 275:Src/stm32f1xx_it.c **** 
 276:Src/stm32f1xx_it.c **** /**
 277:Src/stm32f1xx_it.c ****   * @brief This function handles I2C1 event interrupt.
 278:Src/stm32f1xx_it.c ****   */
 279:Src/stm32f1xx_it.c **** void I2C1_EV_IRQHandler(void)
 280:Src/stm32f1xx_it.c **** {
ARM GAS  C:\Users\Patrick\AppData\Local\Temp\ccglEv4N.s 			page 12


 377              		.loc 1 280 0
 378              		.cfi_startproc
 379              		@ args = 0, pretend = 0, frame = 0
 380              		@ frame_needed = 0, uses_anonymous_args = 0
 381 0000 08B5     		push	{r3, lr}
 382              	.LCFI6:
 383              		.cfi_def_cfa_offset 8
 384              		.cfi_offset 3, -8
 385              		.cfi_offset 14, -4
 281:Src/stm32f1xx_it.c ****   /* USER CODE BEGIN I2C1_EV_IRQn 0 */
 282:Src/stm32f1xx_it.c **** 
 283:Src/stm32f1xx_it.c ****   /* USER CODE END I2C1_EV_IRQn 0 */
 284:Src/stm32f1xx_it.c ****   HAL_I2C_EV_IRQHandler(&hi2c1);
 386              		.loc 1 284 0
 387 0002 0248     		ldr	r0, .L37
 388 0004 FFF7FEFF 		bl	HAL_I2C_EV_IRQHandler
 389              	.LVL6:
 285:Src/stm32f1xx_it.c ****   /* USER CODE BEGIN I2C1_EV_IRQn 1 */
 286:Src/stm32f1xx_it.c **** 
 287:Src/stm32f1xx_it.c ****   /* USER CODE END I2C1_EV_IRQn 1 */
 288:Src/stm32f1xx_it.c **** }
 390              		.loc 1 288 0
 391 0008 08BD     		pop	{r3, pc}
 392              	.L38:
 393 000a 00BF     		.align	2
 394              	.L37:
 395 000c 00000000 		.word	hi2c1
 396              		.cfi_endproc
 397              	.LFE80:
 399              		.section	.text.I2C1_ER_IRQHandler,"ax",%progbits
 400              		.align	1
 401              		.global	I2C1_ER_IRQHandler
 402              		.syntax unified
 403              		.thumb
 404              		.thumb_func
 405              		.fpu softvfp
 407              	I2C1_ER_IRQHandler:
 408              	.LFB81:
 289:Src/stm32f1xx_it.c **** 
 290:Src/stm32f1xx_it.c **** /**
 291:Src/stm32f1xx_it.c ****   * @brief This function handles I2C1 error interrupt.
 292:Src/stm32f1xx_it.c ****   */
 293:Src/stm32f1xx_it.c **** void I2C1_ER_IRQHandler(void)
 294:Src/stm32f1xx_it.c **** {
 409              		.loc 1 294 0
 410              		.cfi_startproc
 411              		@ args = 0, pretend = 0, frame = 0
 412              		@ frame_needed = 0, uses_anonymous_args = 0
 413 0000 08B5     		push	{r3, lr}
 414              	.LCFI7:
 415              		.cfi_def_cfa_offset 8
 416              		.cfi_offset 3, -8
 417              		.cfi_offset 14, -4
 295:Src/stm32f1xx_it.c ****   /* USER CODE BEGIN I2C1_ER_IRQn 0 */
 296:Src/stm32f1xx_it.c **** 
 297:Src/stm32f1xx_it.c ****   /* USER CODE END I2C1_ER_IRQn 0 */
 298:Src/stm32f1xx_it.c ****   HAL_I2C_ER_IRQHandler(&hi2c1);
ARM GAS  C:\Users\Patrick\AppData\Local\Temp\ccglEv4N.s 			page 13


 418              		.loc 1 298 0
 419 0002 0248     		ldr	r0, .L41
 420 0004 FFF7FEFF 		bl	HAL_I2C_ER_IRQHandler
 421              	.LVL7:
 299:Src/stm32f1xx_it.c ****   /* USER CODE BEGIN I2C1_ER_IRQn 1 */
 300:Src/stm32f1xx_it.c **** 
 301:Src/stm32f1xx_it.c ****   /* USER CODE END I2C1_ER_IRQn 1 */
 302:Src/stm32f1xx_it.c **** }
 422              		.loc 1 302 0
 423 0008 08BD     		pop	{r3, pc}
 424              	.L42:
 425 000a 00BF     		.align	2
 426              	.L41:
 427 000c 00000000 		.word	hi2c1
 428              		.cfi_endproc
 429              	.LFE81:
 431              		.section	.text.USART3_IRQHandler,"ax",%progbits
 432              		.align	1
 433              		.global	USART3_IRQHandler
 434              		.syntax unified
 435              		.thumb
 436              		.thumb_func
 437              		.fpu softvfp
 439              	USART3_IRQHandler:
 440              	.LFB82:
 303:Src/stm32f1xx_it.c **** 
 304:Src/stm32f1xx_it.c **** /**
 305:Src/stm32f1xx_it.c ****   * @brief This function handles USART3 global interrupt.
 306:Src/stm32f1xx_it.c ****   */
 307:Src/stm32f1xx_it.c **** void USART3_IRQHandler(void)
 308:Src/stm32f1xx_it.c **** {
 441              		.loc 1 308 0
 442              		.cfi_startproc
 443              		@ args = 0, pretend = 0, frame = 0
 444              		@ frame_needed = 0, uses_anonymous_args = 0
 445 0000 08B5     		push	{r3, lr}
 446              	.LCFI8:
 447              		.cfi_def_cfa_offset 8
 448              		.cfi_offset 3, -8
 449              		.cfi_offset 14, -4
 309:Src/stm32f1xx_it.c ****   /* USER CODE BEGIN USART3_IRQn 0 */
 310:Src/stm32f1xx_it.c **** 
 311:Src/stm32f1xx_it.c ****   /* USER CODE END USART3_IRQn 0 */
 312:Src/stm32f1xx_it.c ****   HAL_UART_IRQHandler(&huart3);
 450              		.loc 1 312 0
 451 0002 0248     		ldr	r0, .L45
 452 0004 FFF7FEFF 		bl	HAL_UART_IRQHandler
 453              	.LVL8:
 313:Src/stm32f1xx_it.c ****   /* USER CODE BEGIN USART3_IRQn 1 */
 314:Src/stm32f1xx_it.c **** 
 315:Src/stm32f1xx_it.c ****   /* USER CODE END USART3_IRQn 1 */
 316:Src/stm32f1xx_it.c **** }
 454              		.loc 1 316 0
 455 0008 08BD     		pop	{r3, pc}
 456              	.L46:
 457 000a 00BF     		.align	2
 458              	.L45:
ARM GAS  C:\Users\Patrick\AppData\Local\Temp\ccglEv4N.s 			page 14


 459 000c 00000000 		.word	huart3
 460              		.cfi_endproc
 461              	.LFE82:
 463              		.text
 464              	.Letext0:
 465              		.file 2 "c:\\program files (x86)\\embedded toolchain\\gnu tools arm embedded\\7 2017-q4-major\\arm
 466              		.file 3 "c:\\program files (x86)\\embedded toolchain\\gnu tools arm embedded\\7 2017-q4-major\\arm
 467              		.file 4 "Drivers/CMSIS/Include/core_cm3.h"
 468              		.file 5 "Drivers/CMSIS/Device/ST/STM32F1xx/Include/system_stm32f1xx.h"
 469              		.file 6 "Drivers/CMSIS/Device/ST/STM32F1xx/Include/stm32f103xb.h"
 470              		.file 7 "c:\\program files (x86)\\embedded toolchain\\gnu tools arm embedded\\7 2017-q4-major\\arm
 471              		.file 8 "c:\\program files (x86)\\embedded toolchain\\gnu tools arm embedded\\7 2017-q4-major\\arm
 472              		.file 9 "c:\\program files (x86)\\embedded toolchain\\gnu tools arm embedded\\7 2017-q4-major\\lib
 473              		.file 10 "c:\\program files (x86)\\embedded toolchain\\gnu tools arm embedded\\7 2017-q4-major\\ar
 474              		.file 11 "Drivers/STM32F1xx_HAL_Driver/Inc/stm32f1xx_hal_def.h"
 475              		.file 12 "Drivers/STM32F1xx_HAL_Driver/Inc/stm32f1xx_hal_dma.h"
 476              		.file 13 "Drivers/STM32F1xx_HAL_Driver/Inc/stm32f1xx_hal_adc.h"
 477              		.file 14 "Drivers/STM32F1xx_HAL_Driver/Inc/stm32f1xx_hal_i2c.h"
 478              		.file 15 "Drivers/STM32F1xx_HAL_Driver/Inc/stm32f1xx_hal_tim.h"
 479              		.file 16 "Drivers/STM32F1xx_HAL_Driver/Inc/stm32f1xx_hal_uart.h"
 480              		.file 17 "Drivers/STM32F1xx_HAL_Driver/Inc/stm32f1xx_hal.h"
ARM GAS  C:\Users\Patrick\AppData\Local\Temp\ccglEv4N.s 			page 15

