ARM GAS  C:\Users\Patrick\AppData\Local\Temp\ccz2xEqw.s 			page 1


   1              		.cpu cortex-m3
   2              		.eabi_attribute 20, 1
   3              		.eabi_attribute 21, 1
   4              		.eabi_attribute 23, 3
   5              		.eabi_attribute 24, 1
   6              		.eabi_attribute 25, 1
   7              		.eabi_attribute 26, 1
   8              		.eabi_attribute 30, 1
   9              		.eabi_attribute 34, 1
  10              		.eabi_attribute 18, 4
  11              		.file	"gpio.c"
  12              		.text
  13              	.Ltext0:
  14              		.cfi_sections	.debug_frame
  15              		.section	.text.MX_GPIO_Init,"ax",%progbits
  16              		.align	1
  17              		.global	MX_GPIO_Init
  18              		.syntax unified
  19              		.thumb
  20              		.thumb_func
  21              		.fpu softvfp
  23              	MX_GPIO_Init:
  24              	.LFB66:
  25              		.file 1 "Src/gpio.c"
   1:Src/gpio.c    **** /**
   2:Src/gpio.c    ****   ******************************************************************************
   3:Src/gpio.c    ****   * File Name          : gpio.c
   4:Src/gpio.c    ****   * Description        : This file provides code for the configuration
   5:Src/gpio.c    ****   *                      of all used GPIO pins.
   6:Src/gpio.c    ****   ******************************************************************************
   7:Src/gpio.c    ****   * @attention
   8:Src/gpio.c    ****   *
   9:Src/gpio.c    ****   * <h2><center>&copy; Copyright (c) 2020 STMicroelectronics.
  10:Src/gpio.c    ****   * All rights reserved.</center></h2>
  11:Src/gpio.c    ****   *
  12:Src/gpio.c    ****   * This software component is licensed by ST under BSD 3-Clause license,
  13:Src/gpio.c    ****   * the "License"; You may not use this file except in compliance with the
  14:Src/gpio.c    ****   * License. You may obtain a copy of the License at:
  15:Src/gpio.c    ****   *                        opensource.org/licenses/BSD-3-Clause
  16:Src/gpio.c    ****   *
  17:Src/gpio.c    ****   ******************************************************************************
  18:Src/gpio.c    ****   */
  19:Src/gpio.c    **** 
  20:Src/gpio.c    **** /* Includes ------------------------------------------------------------------*/
  21:Src/gpio.c    **** #include "gpio.h"
  22:Src/gpio.c    **** /* USER CODE BEGIN 0 */
  23:Src/gpio.c    **** 
  24:Src/gpio.c    **** /* USER CODE END 0 */
  25:Src/gpio.c    **** 
  26:Src/gpio.c    **** /*----------------------------------------------------------------------------*/
  27:Src/gpio.c    **** /* Configure GPIO                                                             */
  28:Src/gpio.c    **** /*----------------------------------------------------------------------------*/
  29:Src/gpio.c    **** /* USER CODE BEGIN 1 */
  30:Src/gpio.c    **** 
  31:Src/gpio.c    **** /* USER CODE END 1 */
  32:Src/gpio.c    **** 
  33:Src/gpio.c    **** /** Configure pins as 
ARM GAS  C:\Users\Patrick\AppData\Local\Temp\ccz2xEqw.s 			page 2


  34:Src/gpio.c    ****         * Analog 
  35:Src/gpio.c    ****         * Input 
  36:Src/gpio.c    ****         * Output
  37:Src/gpio.c    ****         * EVENT_OUT
  38:Src/gpio.c    ****         * EXTI
  39:Src/gpio.c    ****         * Free pins are configured automatically as Analog (this feature is enabled through 
  40:Src/gpio.c    ****         * the Code Generation settings)
  41:Src/gpio.c    **** */
  42:Src/gpio.c    **** void MX_GPIO_Init(void)
  43:Src/gpio.c    **** {
  26              		.loc 1 43 0
  27              		.cfi_startproc
  28              		@ args = 0, pretend = 0, frame = 32
  29              		@ frame_needed = 0, uses_anonymous_args = 0
  30 0000 2DE9F047 		push	{r4, r5, r6, r7, r8, r9, r10, lr}
  31              	.LCFI0:
  32              		.cfi_def_cfa_offset 32
  33              		.cfi_offset 4, -32
  34              		.cfi_offset 5, -28
  35              		.cfi_offset 6, -24
  36              		.cfi_offset 7, -20
  37              		.cfi_offset 8, -16
  38              		.cfi_offset 9, -12
  39              		.cfi_offset 10, -8
  40              		.cfi_offset 14, -4
  41 0004 88B0     		sub	sp, sp, #32
  42              	.LCFI1:
  43              		.cfi_def_cfa_offset 64
  44:Src/gpio.c    **** 
  45:Src/gpio.c    ****   GPIO_InitTypeDef GPIO_InitStruct = {0};
  44              		.loc 1 45 0
  45 0006 0024     		movs	r4, #0
  46 0008 0494     		str	r4, [sp, #16]
  47 000a 0594     		str	r4, [sp, #20]
  48 000c 0694     		str	r4, [sp, #24]
  49 000e 0794     		str	r4, [sp, #28]
  50              	.LBB2:
  46:Src/gpio.c    **** 
  47:Src/gpio.c    ****   /* GPIO Ports Clock Enable */
  48:Src/gpio.c    ****   __HAL_RCC_GPIOC_CLK_ENABLE();
  51              		.loc 1 48 0
  52 0010 3D4B     		ldr	r3, .L3
  53 0012 9A69     		ldr	r2, [r3, #24]
  54 0014 42F01002 		orr	r2, r2, #16
  55 0018 9A61     		str	r2, [r3, #24]
  56 001a 9A69     		ldr	r2, [r3, #24]
  57 001c 02F01002 		and	r2, r2, #16
  58 0020 0092     		str	r2, [sp]
  59 0022 009A     		ldr	r2, [sp]
  60              	.LBE2:
  61              	.LBB3:
  49:Src/gpio.c    ****   __HAL_RCC_GPIOD_CLK_ENABLE();
  62              		.loc 1 49 0
  63 0024 9A69     		ldr	r2, [r3, #24]
  64 0026 42F02002 		orr	r2, r2, #32
  65 002a 9A61     		str	r2, [r3, #24]
  66 002c 9A69     		ldr	r2, [r3, #24]
ARM GAS  C:\Users\Patrick\AppData\Local\Temp\ccz2xEqw.s 			page 3


  67 002e 02F02002 		and	r2, r2, #32
  68 0032 0192     		str	r2, [sp, #4]
  69 0034 019A     		ldr	r2, [sp, #4]
  70              	.LBE3:
  71              	.LBB4:
  50:Src/gpio.c    ****   __HAL_RCC_GPIOA_CLK_ENABLE();
  72              		.loc 1 50 0
  73 0036 9A69     		ldr	r2, [r3, #24]
  74 0038 42F00402 		orr	r2, r2, #4
  75 003c 9A61     		str	r2, [r3, #24]
  76 003e 9A69     		ldr	r2, [r3, #24]
  77 0040 02F00402 		and	r2, r2, #4
  78 0044 0292     		str	r2, [sp, #8]
  79 0046 029A     		ldr	r2, [sp, #8]
  80              	.LBE4:
  81              	.LBB5:
  51:Src/gpio.c    ****   __HAL_RCC_GPIOB_CLK_ENABLE();
  82              		.loc 1 51 0
  83 0048 9A69     		ldr	r2, [r3, #24]
  84 004a 42F00802 		orr	r2, r2, #8
  85 004e 9A61     		str	r2, [r3, #24]
  86 0050 9B69     		ldr	r3, [r3, #24]
  87 0052 03F00803 		and	r3, r3, #8
  88 0056 0393     		str	r3, [sp, #12]
  89 0058 039B     		ldr	r3, [sp, #12]
  90              	.LBE5:
  52:Src/gpio.c    **** 
  53:Src/gpio.c    ****   /*Configure GPIO pin Output Level */
  54:Src/gpio.c    ****   HAL_GPIO_WritePin(NLED_GPIO_Port, NLED_Pin, GPIO_PIN_SET);
  91              		.loc 1 54 0
  92 005a DFF8B480 		ldr	r8, .L3+8
  93 005e 0122     		movs	r2, #1
  94 0060 4FF40051 		mov	r1, #8192
  95 0064 4046     		mov	r0, r8
  96 0066 FFF7FEFF 		bl	HAL_GPIO_WritePin
  97              	.LVL0:
  55:Src/gpio.c    **** 
  56:Src/gpio.c    ****   /*Configure GPIO pin Output Level */
  57:Src/gpio.c    ****   HAL_GPIO_WritePin(GPIOB, DEBUG5_Pin|DEBUG4_Pin|DEBUG3_Pin|DEBUG2_Pin 
  98              		.loc 1 57 0
  99 006a 284D     		ldr	r5, .L3+4
 100 006c 2246     		mov	r2, r4
 101 006e 4FF22001 		movw	r1, #61472
 102 0072 2846     		mov	r0, r5
 103 0074 FFF7FEFF 		bl	HAL_GPIO_WritePin
 104              	.LVL1:
  58:Src/gpio.c    ****                           |SPI1_CS_Pin, GPIO_PIN_RESET);
  59:Src/gpio.c    **** 
  60:Src/gpio.c    ****   /*Configure GPIO pin Output Level */
  61:Src/gpio.c    ****   HAL_GPIO_WritePin(GPIOA, DEBUG1_Pin|DEBUG6_Pin, GPIO_PIN_RESET);
 105              		.loc 1 61 0
 106 0078 DFF898A0 		ldr	r10, .L3+12
 107 007c 2246     		mov	r2, r4
 108 007e 4FF40141 		mov	r1, #33024
 109 0082 5046     		mov	r0, r10
 110 0084 FFF7FEFF 		bl	HAL_GPIO_WritePin
 111              	.LVL2:
ARM GAS  C:\Users\Patrick\AppData\Local\Temp\ccz2xEqw.s 			page 4


  62:Src/gpio.c    **** 
  63:Src/gpio.c    ****   /*Configure GPIO pin : PtPin */
  64:Src/gpio.c    ****   GPIO_InitStruct.Pin = NLED_Pin;
 112              		.loc 1 64 0
 113 0088 4FF40053 		mov	r3, #8192
 114 008c 0493     		str	r3, [sp, #16]
  65:Src/gpio.c    ****   GPIO_InitStruct.Mode = GPIO_MODE_OUTPUT_PP;
 115              		.loc 1 65 0
 116 008e 0127     		movs	r7, #1
 117 0090 0597     		str	r7, [sp, #20]
  66:Src/gpio.c    ****   GPIO_InitStruct.Pull = GPIO_NOPULL;
 118              		.loc 1 66 0
 119 0092 0694     		str	r4, [sp, #24]
  67:Src/gpio.c    ****   GPIO_InitStruct.Speed = GPIO_SPEED_FREQ_LOW;
 120              		.loc 1 67 0
 121 0094 0226     		movs	r6, #2
 122 0096 0796     		str	r6, [sp, #28]
  68:Src/gpio.c    ****   HAL_GPIO_Init(NLED_GPIO_Port, &GPIO_InitStruct);
 123              		.loc 1 68 0
 124 0098 04A9     		add	r1, sp, #16
 125 009a 4046     		mov	r0, r8
 126 009c FFF7FEFF 		bl	HAL_GPIO_Init
 127              	.LVL3:
  69:Src/gpio.c    **** 
  70:Src/gpio.c    ****   /*Configure GPIO pins : PC14 PC15 */
  71:Src/gpio.c    ****   GPIO_InitStruct.Pin = GPIO_PIN_14|GPIO_PIN_15;
 128              		.loc 1 71 0
 129 00a0 4FF44043 		mov	r3, #49152
 130 00a4 0493     		str	r3, [sp, #16]
  72:Src/gpio.c    ****   GPIO_InitStruct.Mode = GPIO_MODE_ANALOG;
 131              		.loc 1 72 0
 132 00a6 4FF00309 		mov	r9, #3
 133 00aa CDF81490 		str	r9, [sp, #20]
  73:Src/gpio.c    ****   HAL_GPIO_Init(GPIOC, &GPIO_InitStruct);
 134              		.loc 1 73 0
 135 00ae 04A9     		add	r1, sp, #16
 136 00b0 4046     		mov	r0, r8
 137 00b2 FFF7FEFF 		bl	HAL_GPIO_Init
 138              	.LVL4:
  74:Src/gpio.c    **** 
  75:Src/gpio.c    ****   /*Configure GPIO pin : PtPin */
  76:Src/gpio.c    ****   GPIO_InitStruct.Pin = BOOT1_Pin;
 139              		.loc 1 76 0
 140 00b6 0423     		movs	r3, #4
 141 00b8 0493     		str	r3, [sp, #16]
  77:Src/gpio.c    ****   GPIO_InitStruct.Mode = GPIO_MODE_INPUT;
 142              		.loc 1 77 0
 143 00ba 0594     		str	r4, [sp, #20]
  78:Src/gpio.c    ****   GPIO_InitStruct.Pull = GPIO_NOPULL;
 144              		.loc 1 78 0
 145 00bc 0694     		str	r4, [sp, #24]
  79:Src/gpio.c    ****   HAL_GPIO_Init(BOOT1_GPIO_Port, &GPIO_InitStruct);
 146              		.loc 1 79 0
 147 00be 04A9     		add	r1, sp, #16
 148 00c0 2846     		mov	r0, r5
 149 00c2 FFF7FEFF 		bl	HAL_GPIO_Init
 150              	.LVL5:
ARM GAS  C:\Users\Patrick\AppData\Local\Temp\ccz2xEqw.s 			page 5


  80:Src/gpio.c    **** 
  81:Src/gpio.c    ****   /*Configure GPIO pins : PBPin PBPin PBPin PBPin 
  82:Src/gpio.c    ****                            PBPin */
  83:Src/gpio.c    ****   GPIO_InitStruct.Pin = DEBUG5_Pin|DEBUG4_Pin|DEBUG3_Pin|DEBUG2_Pin 
 151              		.loc 1 83 0
 152 00c6 4FF22003 		movw	r3, #61472
 153 00ca 0493     		str	r3, [sp, #16]
  84:Src/gpio.c    ****                           |SPI1_CS_Pin;
  85:Src/gpio.c    ****   GPIO_InitStruct.Mode = GPIO_MODE_OUTPUT_PP;
 154              		.loc 1 85 0
 155 00cc 0597     		str	r7, [sp, #20]
  86:Src/gpio.c    ****   GPIO_InitStruct.Pull = GPIO_NOPULL;
 156              		.loc 1 86 0
 157 00ce 0694     		str	r4, [sp, #24]
  87:Src/gpio.c    ****   GPIO_InitStruct.Speed = GPIO_SPEED_FREQ_LOW;
 158              		.loc 1 87 0
 159 00d0 0796     		str	r6, [sp, #28]
  88:Src/gpio.c    ****   HAL_GPIO_Init(GPIOB, &GPIO_InitStruct);
 160              		.loc 1 88 0
 161 00d2 04A9     		add	r1, sp, #16
 162 00d4 2846     		mov	r0, r5
 163 00d6 FFF7FEFF 		bl	HAL_GPIO_Init
 164              	.LVL6:
  89:Src/gpio.c    **** 
  90:Src/gpio.c    ****   /*Configure GPIO pins : PAPin PAPin */
  91:Src/gpio.c    ****   GPIO_InitStruct.Pin = DEBUG1_Pin|DEBUG6_Pin;
 165              		.loc 1 91 0
 166 00da 4FF40143 		mov	r3, #33024
 167 00de 0493     		str	r3, [sp, #16]
  92:Src/gpio.c    ****   GPIO_InitStruct.Mode = GPIO_MODE_OUTPUT_PP;
 168              		.loc 1 92 0
 169 00e0 0597     		str	r7, [sp, #20]
  93:Src/gpio.c    ****   GPIO_InitStruct.Pull = GPIO_NOPULL;
 170              		.loc 1 93 0
 171 00e2 0694     		str	r4, [sp, #24]
  94:Src/gpio.c    ****   GPIO_InitStruct.Speed = GPIO_SPEED_FREQ_LOW;
 172              		.loc 1 94 0
 173 00e4 0796     		str	r6, [sp, #28]
  95:Src/gpio.c    ****   HAL_GPIO_Init(GPIOA, &GPIO_InitStruct);
 174              		.loc 1 95 0
 175 00e6 04A9     		add	r1, sp, #16
 176 00e8 5046     		mov	r0, r10
 177 00ea FFF7FEFF 		bl	HAL_GPIO_Init
 178              	.LVL7:
  96:Src/gpio.c    **** 
  97:Src/gpio.c    ****   /*Configure GPIO pins : PB3 PB4 PB8 PB9 */
  98:Src/gpio.c    ****   GPIO_InitStruct.Pin = GPIO_PIN_3|GPIO_PIN_4|GPIO_PIN_8|GPIO_PIN_9;
 179              		.loc 1 98 0
 180 00ee 4FF44673 		mov	r3, #792
 181 00f2 0493     		str	r3, [sp, #16]
  99:Src/gpio.c    ****   GPIO_InitStruct.Mode = GPIO_MODE_ANALOG;
 182              		.loc 1 99 0
 183 00f4 CDF81490 		str	r9, [sp, #20]
 100:Src/gpio.c    ****   HAL_GPIO_Init(GPIOB, &GPIO_InitStruct);
 184              		.loc 1 100 0
 185 00f8 04A9     		add	r1, sp, #16
 186 00fa 2846     		mov	r0, r5
ARM GAS  C:\Users\Patrick\AppData\Local\Temp\ccz2xEqw.s 			page 6


 187 00fc FFF7FEFF 		bl	HAL_GPIO_Init
 188              	.LVL8:
 101:Src/gpio.c    **** 
 102:Src/gpio.c    **** }
 189              		.loc 1 102 0
 190 0100 08B0     		add	sp, sp, #32
 191              	.LCFI2:
 192              		.cfi_def_cfa_offset 32
 193              		@ sp needed
 194 0102 BDE8F087 		pop	{r4, r5, r6, r7, r8, r9, r10, pc}
 195              	.L4:
 196 0106 00BF     		.align	2
 197              	.L3:
 198 0108 00100240 		.word	1073876992
 199 010c 000C0140 		.word	1073810432
 200 0110 00100140 		.word	1073811456
 201 0114 00080140 		.word	1073809408
 202              		.cfi_endproc
 203              	.LFE66:
 205              		.text
 206              	.Letext0:
 207              		.file 2 "c:\\program files (x86)\\embedded toolchain\\gnu tools arm embedded\\7 2017-q4-major\\arm
 208              		.file 3 "c:\\program files (x86)\\embedded toolchain\\gnu tools arm embedded\\7 2017-q4-major\\arm
 209              		.file 4 "Drivers/CMSIS/Include/core_cm3.h"
 210              		.file 5 "Drivers/CMSIS/Device/ST/STM32F1xx/Include/system_stm32f1xx.h"
 211              		.file 6 "Drivers/CMSIS/Device/ST/STM32F1xx/Include/stm32f103xb.h"
 212              		.file 7 "c:\\program files (x86)\\embedded toolchain\\gnu tools arm embedded\\7 2017-q4-major\\arm
 213              		.file 8 "c:\\program files (x86)\\embedded toolchain\\gnu tools arm embedded\\7 2017-q4-major\\arm
 214              		.file 9 "c:\\program files (x86)\\embedded toolchain\\gnu tools arm embedded\\7 2017-q4-major\\lib
 215              		.file 10 "c:\\program files (x86)\\embedded toolchain\\gnu tools arm embedded\\7 2017-q4-major\\ar
 216              		.file 11 "Drivers/STM32F1xx_HAL_Driver/Inc/stm32f1xx_hal_gpio.h"
 217              		.file 12 "Drivers/STM32F1xx_HAL_Driver/Inc/stm32f1xx_hal.h"
ARM GAS  C:\Users\Patrick\AppData\Local\Temp\ccz2xEqw.s 			page 7

