ARM GAS  C:\Users\Patrick\AppData\Local\Temp\ccrdGGAh.s 			page 1


   1              		.cpu cortex-m3
   2              		.eabi_attribute 20, 1
   3              		.eabi_attribute 21, 1
   4              		.eabi_attribute 23, 3
   5              		.eabi_attribute 24, 1
   6              		.eabi_attribute 25, 1
   7              		.eabi_attribute 26, 1
   8              		.eabi_attribute 30, 1
   9              		.eabi_attribute 34, 1
  10              		.eabi_attribute 18, 4
  11              		.file	"spi.c"
  12              		.text
  13              	.Ltext0:
  14              		.cfi_sections	.debug_frame
  15              		.section	.text.MX_SPI1_Init,"ax",%progbits
  16              		.align	1
  17              		.global	MX_SPI1_Init
  18              		.syntax unified
  19              		.thumb
  20              		.thumb_func
  21              		.fpu softvfp
  23              	MX_SPI1_Init:
  24              	.LFB66:
  25              		.file 1 "Src/spi.c"
   1:Src/spi.c     **** /**
   2:Src/spi.c     ****   ******************************************************************************
   3:Src/spi.c     ****   * File Name          : SPI.c
   4:Src/spi.c     ****   * Description        : This file provides code for the configuration
   5:Src/spi.c     ****   *                      of the SPI instances.
   6:Src/spi.c     ****   ******************************************************************************
   7:Src/spi.c     ****   * @attention
   8:Src/spi.c     ****   *
   9:Src/spi.c     ****   * <h2><center>&copy; Copyright (c) 2020 STMicroelectronics.
  10:Src/spi.c     ****   * All rights reserved.</center></h2>
  11:Src/spi.c     ****   *
  12:Src/spi.c     ****   * This software component is licensed by ST under BSD 3-Clause license,
  13:Src/spi.c     ****   * the "License"; You may not use this file except in compliance with the
  14:Src/spi.c     ****   * License. You may obtain a copy of the License at:
  15:Src/spi.c     ****   *                        opensource.org/licenses/BSD-3-Clause
  16:Src/spi.c     ****   *
  17:Src/spi.c     ****   ******************************************************************************
  18:Src/spi.c     ****   */
  19:Src/spi.c     **** 
  20:Src/spi.c     **** /* Includes ------------------------------------------------------------------*/
  21:Src/spi.c     **** #include "spi.h"
  22:Src/spi.c     **** 
  23:Src/spi.c     **** /* USER CODE BEGIN 0 */
  24:Src/spi.c     **** 
  25:Src/spi.c     **** /* USER CODE END 0 */
  26:Src/spi.c     **** 
  27:Src/spi.c     **** SPI_HandleTypeDef hspi1;
  28:Src/spi.c     **** 
  29:Src/spi.c     **** /* SPI1 init function */
  30:Src/spi.c     **** void MX_SPI1_Init(void)
  31:Src/spi.c     **** {
  26              		.loc 1 31 0
  27              		.cfi_startproc
ARM GAS  C:\Users\Patrick\AppData\Local\Temp\ccrdGGAh.s 			page 2


  28              		@ args = 0, pretend = 0, frame = 0
  29              		@ frame_needed = 0, uses_anonymous_args = 0
  30 0000 08B5     		push	{r3, lr}
  31              	.LCFI0:
  32              		.cfi_def_cfa_offset 8
  33              		.cfi_offset 3, -8
  34              		.cfi_offset 14, -4
  32:Src/spi.c     **** 
  33:Src/spi.c     ****   hspi1.Instance = SPI1;
  35              		.loc 1 33 0
  36 0002 0F48     		ldr	r0, .L5
  37 0004 0F4B     		ldr	r3, .L5+4
  38 0006 0360     		str	r3, [r0]
  34:Src/spi.c     ****   hspi1.Init.Mode = SPI_MODE_MASTER;
  39              		.loc 1 34 0
  40 0008 4FF48273 		mov	r3, #260
  41 000c 4360     		str	r3, [r0, #4]
  35:Src/spi.c     ****   hspi1.Init.Direction = SPI_DIRECTION_2LINES;
  42              		.loc 1 35 0
  43 000e 0023     		movs	r3, #0
  44 0010 8360     		str	r3, [r0, #8]
  36:Src/spi.c     ****   hspi1.Init.DataSize = SPI_DATASIZE_8BIT;
  45              		.loc 1 36 0
  46 0012 C360     		str	r3, [r0, #12]
  37:Src/spi.c     ****   hspi1.Init.CLKPolarity = SPI_POLARITY_HIGH;
  47              		.loc 1 37 0
  48 0014 0222     		movs	r2, #2
  49 0016 0261     		str	r2, [r0, #16]
  38:Src/spi.c     ****   hspi1.Init.CLKPhase = SPI_PHASE_2EDGE;
  50              		.loc 1 38 0
  51 0018 0122     		movs	r2, #1
  52 001a 4261     		str	r2, [r0, #20]
  39:Src/spi.c     ****   hspi1.Init.NSS = SPI_NSS_SOFT;
  53              		.loc 1 39 0
  54 001c 4FF40072 		mov	r2, #512
  55 0020 8261     		str	r2, [r0, #24]
  40:Src/spi.c     ****   hspi1.Init.BaudRatePrescaler = SPI_BAUDRATEPRESCALER_8;
  56              		.loc 1 40 0
  57 0022 1022     		movs	r2, #16
  58 0024 C261     		str	r2, [r0, #28]
  41:Src/spi.c     ****   hspi1.Init.FirstBit = SPI_FIRSTBIT_MSB;
  59              		.loc 1 41 0
  60 0026 0362     		str	r3, [r0, #32]
  42:Src/spi.c     ****   hspi1.Init.TIMode = SPI_TIMODE_DISABLE;
  61              		.loc 1 42 0
  62 0028 4362     		str	r3, [r0, #36]
  43:Src/spi.c     ****   hspi1.Init.CRCCalculation = SPI_CRCCALCULATION_DISABLE;
  63              		.loc 1 43 0
  64 002a 8362     		str	r3, [r0, #40]
  44:Src/spi.c     ****   hspi1.Init.CRCPolynomial = 10;
  65              		.loc 1 44 0
  66 002c 0A23     		movs	r3, #10
  67 002e C362     		str	r3, [r0, #44]
  45:Src/spi.c     ****   if (HAL_SPI_Init(&hspi1) != HAL_OK)
  68              		.loc 1 45 0
  69 0030 FFF7FEFF 		bl	HAL_SPI_Init
  70              	.LVL0:
ARM GAS  C:\Users\Patrick\AppData\Local\Temp\ccrdGGAh.s 			page 3


  71 0034 00B9     		cbnz	r0, .L4
  72              	.L1:
  46:Src/spi.c     ****   {
  47:Src/spi.c     ****     Error_Handler();
  48:Src/spi.c     ****   }
  49:Src/spi.c     **** 
  50:Src/spi.c     **** }
  73              		.loc 1 50 0
  74 0036 08BD     		pop	{r3, pc}
  75              	.L4:
  47:Src/spi.c     ****   }
  76              		.loc 1 47 0
  77 0038 FFF7FEFF 		bl	Error_Handler
  78              	.LVL1:
  79              		.loc 1 50 0
  80 003c FBE7     		b	.L1
  81              	.L6:
  82 003e 00BF     		.align	2
  83              	.L5:
  84 0040 00000000 		.word	hspi1
  85 0044 00300140 		.word	1073819648
  86              		.cfi_endproc
  87              	.LFE66:
  89              		.section	.text.HAL_SPI_MspInit,"ax",%progbits
  90              		.align	1
  91              		.global	HAL_SPI_MspInit
  92              		.syntax unified
  93              		.thumb
  94              		.thumb_func
  95              		.fpu softvfp
  97              	HAL_SPI_MspInit:
  98              	.LFB67:
  51:Src/spi.c     **** 
  52:Src/spi.c     **** void HAL_SPI_MspInit(SPI_HandleTypeDef* spiHandle)
  53:Src/spi.c     **** {
  99              		.loc 1 53 0
 100              		.cfi_startproc
 101              		@ args = 0, pretend = 0, frame = 24
 102              		@ frame_needed = 0, uses_anonymous_args = 0
 103              	.LVL2:
 104 0000 10B5     		push	{r4, lr}
 105              	.LCFI1:
 106              		.cfi_def_cfa_offset 8
 107              		.cfi_offset 4, -8
 108              		.cfi_offset 14, -4
 109 0002 86B0     		sub	sp, sp, #24
 110              	.LCFI2:
 111              		.cfi_def_cfa_offset 32
  54:Src/spi.c     **** 
  55:Src/spi.c     ****   GPIO_InitTypeDef GPIO_InitStruct = {0};
 112              		.loc 1 55 0
 113 0004 0023     		movs	r3, #0
 114 0006 0293     		str	r3, [sp, #8]
 115 0008 0393     		str	r3, [sp, #12]
 116 000a 0493     		str	r3, [sp, #16]
 117 000c 0593     		str	r3, [sp, #20]
  56:Src/spi.c     ****   if(spiHandle->Instance==SPI1)
ARM GAS  C:\Users\Patrick\AppData\Local\Temp\ccrdGGAh.s 			page 4


 118              		.loc 1 56 0
 119 000e 0268     		ldr	r2, [r0]
 120 0010 164B     		ldr	r3, .L11
 121 0012 9A42     		cmp	r2, r3
 122 0014 01D0     		beq	.L10
 123              	.LVL3:
 124              	.L7:
  57:Src/spi.c     ****   {
  58:Src/spi.c     ****   /* USER CODE BEGIN SPI1_MspInit 0 */
  59:Src/spi.c     **** 
  60:Src/spi.c     ****   /* USER CODE END SPI1_MspInit 0 */
  61:Src/spi.c     ****     /* SPI1 clock enable */
  62:Src/spi.c     ****     __HAL_RCC_SPI1_CLK_ENABLE();
  63:Src/spi.c     ****   
  64:Src/spi.c     ****     __HAL_RCC_GPIOA_CLK_ENABLE();
  65:Src/spi.c     ****     /**SPI1 GPIO Configuration    
  66:Src/spi.c     ****     PA5     ------> SPI1_SCK
  67:Src/spi.c     ****     PA6     ------> SPI1_MISO
  68:Src/spi.c     ****     PA7     ------> SPI1_MOSI 
  69:Src/spi.c     ****     */
  70:Src/spi.c     ****     GPIO_InitStruct.Pin = GPIO_PIN_5|GPIO_PIN_7;
  71:Src/spi.c     ****     GPIO_InitStruct.Mode = GPIO_MODE_AF_PP;
  72:Src/spi.c     ****     GPIO_InitStruct.Speed = GPIO_SPEED_FREQ_HIGH;
  73:Src/spi.c     ****     HAL_GPIO_Init(GPIOA, &GPIO_InitStruct);
  74:Src/spi.c     **** 
  75:Src/spi.c     ****     GPIO_InitStruct.Pin = GPIO_PIN_6;
  76:Src/spi.c     ****     GPIO_InitStruct.Mode = GPIO_MODE_INPUT;
  77:Src/spi.c     ****     GPIO_InitStruct.Pull = GPIO_NOPULL;
  78:Src/spi.c     ****     HAL_GPIO_Init(GPIOA, &GPIO_InitStruct);
  79:Src/spi.c     **** 
  80:Src/spi.c     ****   /* USER CODE BEGIN SPI1_MspInit 1 */
  81:Src/spi.c     **** 
  82:Src/spi.c     ****   /* USER CODE END SPI1_MspInit 1 */
  83:Src/spi.c     ****   }
  84:Src/spi.c     **** }
 125              		.loc 1 84 0
 126 0016 06B0     		add	sp, sp, #24
 127              	.LCFI3:
 128              		.cfi_remember_state
 129              		.cfi_def_cfa_offset 8
 130              		@ sp needed
 131 0018 10BD     		pop	{r4, pc}
 132              	.LVL4:
 133              	.L10:
 134              	.LCFI4:
 135              		.cfi_restore_state
 136              	.LBB2:
  62:Src/spi.c     ****   
 137              		.loc 1 62 0
 138 001a 03F56043 		add	r3, r3, #57344
 139 001e 9A69     		ldr	r2, [r3, #24]
 140 0020 42F48052 		orr	r2, r2, #4096
 141 0024 9A61     		str	r2, [r3, #24]
 142 0026 9A69     		ldr	r2, [r3, #24]
 143 0028 02F48052 		and	r2, r2, #4096
 144 002c 0092     		str	r2, [sp]
 145 002e 009A     		ldr	r2, [sp]
ARM GAS  C:\Users\Patrick\AppData\Local\Temp\ccrdGGAh.s 			page 5


 146              	.LBE2:
 147              	.LBB3:
  64:Src/spi.c     ****     /**SPI1 GPIO Configuration    
 148              		.loc 1 64 0
 149 0030 9A69     		ldr	r2, [r3, #24]
 150 0032 42F00402 		orr	r2, r2, #4
 151 0036 9A61     		str	r2, [r3, #24]
 152 0038 9B69     		ldr	r3, [r3, #24]
 153 003a 03F00403 		and	r3, r3, #4
 154 003e 0193     		str	r3, [sp, #4]
 155 0040 019B     		ldr	r3, [sp, #4]
 156              	.LBE3:
  70:Src/spi.c     ****     GPIO_InitStruct.Mode = GPIO_MODE_AF_PP;
 157              		.loc 1 70 0
 158 0042 A023     		movs	r3, #160
 159 0044 0293     		str	r3, [sp, #8]
  71:Src/spi.c     ****     GPIO_InitStruct.Speed = GPIO_SPEED_FREQ_HIGH;
 160              		.loc 1 71 0
 161 0046 0223     		movs	r3, #2
 162 0048 0393     		str	r3, [sp, #12]
  72:Src/spi.c     ****     HAL_GPIO_Init(GPIOA, &GPIO_InitStruct);
 163              		.loc 1 72 0
 164 004a 0323     		movs	r3, #3
 165 004c 0593     		str	r3, [sp, #20]
  73:Src/spi.c     **** 
 166              		.loc 1 73 0
 167 004e 084C     		ldr	r4, .L11+4
 168 0050 02A9     		add	r1, sp, #8
 169 0052 2046     		mov	r0, r4
 170              	.LVL5:
 171 0054 FFF7FEFF 		bl	HAL_GPIO_Init
 172              	.LVL6:
  75:Src/spi.c     ****     GPIO_InitStruct.Mode = GPIO_MODE_INPUT;
 173              		.loc 1 75 0
 174 0058 4023     		movs	r3, #64
 175 005a 0293     		str	r3, [sp, #8]
  76:Src/spi.c     ****     GPIO_InitStruct.Pull = GPIO_NOPULL;
 176              		.loc 1 76 0
 177 005c 0023     		movs	r3, #0
 178 005e 0393     		str	r3, [sp, #12]
  77:Src/spi.c     ****     HAL_GPIO_Init(GPIOA, &GPIO_InitStruct);
 179              		.loc 1 77 0
 180 0060 0493     		str	r3, [sp, #16]
  78:Src/spi.c     **** 
 181              		.loc 1 78 0
 182 0062 02A9     		add	r1, sp, #8
 183 0064 2046     		mov	r0, r4
 184 0066 FFF7FEFF 		bl	HAL_GPIO_Init
 185              	.LVL7:
 186              		.loc 1 84 0
 187 006a D4E7     		b	.L7
 188              	.L12:
 189              		.align	2
 190              	.L11:
 191 006c 00300140 		.word	1073819648
 192 0070 00080140 		.word	1073809408
 193              		.cfi_endproc
ARM GAS  C:\Users\Patrick\AppData\Local\Temp\ccrdGGAh.s 			page 6


 194              	.LFE67:
 196              		.section	.text.HAL_SPI_MspDeInit,"ax",%progbits
 197              		.align	1
 198              		.global	HAL_SPI_MspDeInit
 199              		.syntax unified
 200              		.thumb
 201              		.thumb_func
 202              		.fpu softvfp
 204              	HAL_SPI_MspDeInit:
 205              	.LFB68:
  85:Src/spi.c     **** 
  86:Src/spi.c     **** void HAL_SPI_MspDeInit(SPI_HandleTypeDef* spiHandle)
  87:Src/spi.c     **** {
 206              		.loc 1 87 0
 207              		.cfi_startproc
 208              		@ args = 0, pretend = 0, frame = 0
 209              		@ frame_needed = 0, uses_anonymous_args = 0
 210              	.LVL8:
 211 0000 08B5     		push	{r3, lr}
 212              	.LCFI5:
 213              		.cfi_def_cfa_offset 8
 214              		.cfi_offset 3, -8
 215              		.cfi_offset 14, -4
  88:Src/spi.c     **** 
  89:Src/spi.c     ****   if(spiHandle->Instance==SPI1)
 216              		.loc 1 89 0
 217 0002 0268     		ldr	r2, [r0]
 218 0004 064B     		ldr	r3, .L17
 219 0006 9A42     		cmp	r2, r3
 220 0008 00D0     		beq	.L16
 221              	.LVL9:
 222              	.L13:
  90:Src/spi.c     ****   {
  91:Src/spi.c     ****   /* USER CODE BEGIN SPI1_MspDeInit 0 */
  92:Src/spi.c     **** 
  93:Src/spi.c     ****   /* USER CODE END SPI1_MspDeInit 0 */
  94:Src/spi.c     ****     /* Peripheral clock disable */
  95:Src/spi.c     ****     __HAL_RCC_SPI1_CLK_DISABLE();
  96:Src/spi.c     ****   
  97:Src/spi.c     ****     /**SPI1 GPIO Configuration    
  98:Src/spi.c     ****     PA5     ------> SPI1_SCK
  99:Src/spi.c     ****     PA6     ------> SPI1_MISO
 100:Src/spi.c     ****     PA7     ------> SPI1_MOSI 
 101:Src/spi.c     ****     */
 102:Src/spi.c     ****     HAL_GPIO_DeInit(GPIOA, GPIO_PIN_5|GPIO_PIN_6|GPIO_PIN_7);
 103:Src/spi.c     **** 
 104:Src/spi.c     ****   /* USER CODE BEGIN SPI1_MspDeInit 1 */
 105:Src/spi.c     **** 
 106:Src/spi.c     ****   /* USER CODE END SPI1_MspDeInit 1 */
 107:Src/spi.c     ****   }
 108:Src/spi.c     **** } 
 223              		.loc 1 108 0
 224 000a 08BD     		pop	{r3, pc}
 225              	.LVL10:
 226              	.L16:
  95:Src/spi.c     ****   
 227              		.loc 1 95 0
ARM GAS  C:\Users\Patrick\AppData\Local\Temp\ccrdGGAh.s 			page 7


 228 000c 054A     		ldr	r2, .L17+4
 229 000e 9369     		ldr	r3, [r2, #24]
 230 0010 23F48053 		bic	r3, r3, #4096
 231 0014 9361     		str	r3, [r2, #24]
 102:Src/spi.c     **** 
 232              		.loc 1 102 0
 233 0016 E021     		movs	r1, #224
 234 0018 0348     		ldr	r0, .L17+8
 235              	.LVL11:
 236 001a FFF7FEFF 		bl	HAL_GPIO_DeInit
 237              	.LVL12:
 238              		.loc 1 108 0
 239 001e F4E7     		b	.L13
 240              	.L18:
 241              		.align	2
 242              	.L17:
 243 0020 00300140 		.word	1073819648
 244 0024 00100240 		.word	1073876992
 245 0028 00080140 		.word	1073809408
 246              		.cfi_endproc
 247              	.LFE68:
 249              		.comm	hspi1,88,4
 250              		.text
 251              	.Letext0:
 252              		.file 2 "c:\\program files (x86)\\embedded toolchain\\gnu tools arm embedded\\7 2017-q4-major\\arm
 253              		.file 3 "c:\\program files (x86)\\embedded toolchain\\gnu tools arm embedded\\7 2017-q4-major\\arm
 254              		.file 4 "Drivers/CMSIS/Include/core_cm3.h"
 255              		.file 5 "Drivers/CMSIS/Device/ST/STM32F1xx/Include/system_stm32f1xx.h"
 256              		.file 6 "Drivers/CMSIS/Device/ST/STM32F1xx/Include/stm32f103xb.h"
 257              		.file 7 "c:\\program files (x86)\\embedded toolchain\\gnu tools arm embedded\\7 2017-q4-major\\arm
 258              		.file 8 "c:\\program files (x86)\\embedded toolchain\\gnu tools arm embedded\\7 2017-q4-major\\arm
 259              		.file 9 "c:\\program files (x86)\\embedded toolchain\\gnu tools arm embedded\\7 2017-q4-major\\lib
 260              		.file 10 "c:\\program files (x86)\\embedded toolchain\\gnu tools arm embedded\\7 2017-q4-major\\ar
 261              		.file 11 "Drivers/STM32F1xx_HAL_Driver/Inc/stm32f1xx_hal_def.h"
 262              		.file 12 "Drivers/STM32F1xx_HAL_Driver/Inc/stm32f1xx_hal_gpio.h"
 263              		.file 13 "Drivers/STM32F1xx_HAL_Driver/Inc/stm32f1xx_hal_dma.h"
 264              		.file 14 "Drivers/STM32F1xx_HAL_Driver/Inc/stm32f1xx_hal_spi.h"
 265              		.file 15 "Drivers/STM32F1xx_HAL_Driver/Inc/stm32f1xx_hal.h"
 266              		.file 16 "Inc/spi.h"
 267              		.file 17 "Inc/main.h"
ARM GAS  C:\Users\Patrick\AppData\Local\Temp\ccrdGGAh.s 			page 8

