ARM GAS  C:\Users\Patrick\AppData\Local\Temp\ccbRiZgl.s 			page 1


   1              		.cpu cortex-m3
   2              		.eabi_attribute 20, 1
   3              		.eabi_attribute 21, 1
   4              		.eabi_attribute 23, 3
   5              		.eabi_attribute 24, 1
   6              		.eabi_attribute 25, 1
   7              		.eabi_attribute 26, 1
   8              		.eabi_attribute 30, 1
   9              		.eabi_attribute 34, 1
  10              		.eabi_attribute 18, 4
  11              		.file	"usb.c"
  12              		.text
  13              	.Ltext0:
  14              		.cfi_sections	.debug_frame
  15              		.section	.text.MX_USB_PCD_Init,"ax",%progbits
  16              		.align	1
  17              		.global	MX_USB_PCD_Init
  18              		.syntax unified
  19              		.thumb
  20              		.thumb_func
  21              		.fpu softvfp
  23              	MX_USB_PCD_Init:
  24              	.LFB66:
  25              		.file 1 "Src/usb.c"
   1:Src/usb.c     **** /**
   2:Src/usb.c     ****   ******************************************************************************
   3:Src/usb.c     ****   * File Name          : USB.c
   4:Src/usb.c     ****   * Description        : This file provides code for the configuration
   5:Src/usb.c     ****   *                      of the USB instances.
   6:Src/usb.c     ****   ******************************************************************************
   7:Src/usb.c     ****   * @attention
   8:Src/usb.c     ****   *
   9:Src/usb.c     ****   * <h2><center>&copy; Copyright (c) 2020 STMicroelectronics.
  10:Src/usb.c     ****   * All rights reserved.</center></h2>
  11:Src/usb.c     ****   *
  12:Src/usb.c     ****   * This software component is licensed by ST under BSD 3-Clause license,
  13:Src/usb.c     ****   * the "License"; You may not use this file except in compliance with the
  14:Src/usb.c     ****   * License. You may obtain a copy of the License at:
  15:Src/usb.c     ****   *                        opensource.org/licenses/BSD-3-Clause
  16:Src/usb.c     ****   *
  17:Src/usb.c     ****   ******************************************************************************
  18:Src/usb.c     ****   */
  19:Src/usb.c     **** 
  20:Src/usb.c     **** /* Includes ------------------------------------------------------------------*/
  21:Src/usb.c     **** #include "usb.h"
  22:Src/usb.c     **** 
  23:Src/usb.c     **** /* USER CODE BEGIN 0 */
  24:Src/usb.c     **** 
  25:Src/usb.c     **** /* USER CODE END 0 */
  26:Src/usb.c     **** 
  27:Src/usb.c     **** PCD_HandleTypeDef hpcd_USB_FS;
  28:Src/usb.c     **** 
  29:Src/usb.c     **** /* USB init function */
  30:Src/usb.c     **** 
  31:Src/usb.c     **** void MX_USB_PCD_Init(void)
  32:Src/usb.c     **** {
  26              		.loc 1 32 0
ARM GAS  C:\Users\Patrick\AppData\Local\Temp\ccbRiZgl.s 			page 2


  27              		.cfi_startproc
  28              		@ args = 0, pretend = 0, frame = 0
  29              		@ frame_needed = 0, uses_anonymous_args = 0
  30 0000 08B5     		push	{r3, lr}
  31              	.LCFI0:
  32              		.cfi_def_cfa_offset 8
  33              		.cfi_offset 3, -8
  34              		.cfi_offset 14, -4
  33:Src/usb.c     **** 
  34:Src/usb.c     ****   hpcd_USB_FS.Instance = USB;
  35              		.loc 1 34 0
  36 0002 0948     		ldr	r0, .L5
  37 0004 094B     		ldr	r3, .L5+4
  38 0006 0360     		str	r3, [r0]
  35:Src/usb.c     ****   hpcd_USB_FS.Init.dev_endpoints = 8;
  39              		.loc 1 35 0
  40 0008 0823     		movs	r3, #8
  41 000a 4360     		str	r3, [r0, #4]
  36:Src/usb.c     ****   hpcd_USB_FS.Init.speed = PCD_SPEED_FULL;
  42              		.loc 1 36 0
  43 000c 0223     		movs	r3, #2
  44 000e 8360     		str	r3, [r0, #8]
  37:Src/usb.c     ****   hpcd_USB_FS.Init.low_power_enable = DISABLE;
  45              		.loc 1 37 0
  46 0010 0023     		movs	r3, #0
  47 0012 8361     		str	r3, [r0, #24]
  38:Src/usb.c     ****   hpcd_USB_FS.Init.lpm_enable = DISABLE;
  48              		.loc 1 38 0
  49 0014 C361     		str	r3, [r0, #28]
  39:Src/usb.c     ****   hpcd_USB_FS.Init.battery_charging_enable = DISABLE;
  50              		.loc 1 39 0
  51 0016 0362     		str	r3, [r0, #32]
  40:Src/usb.c     ****   if (HAL_PCD_Init(&hpcd_USB_FS) != HAL_OK)
  52              		.loc 1 40 0
  53 0018 FFF7FEFF 		bl	HAL_PCD_Init
  54              	.LVL0:
  55 001c 00B9     		cbnz	r0, .L4
  56              	.L1:
  41:Src/usb.c     ****   {
  42:Src/usb.c     ****     Error_Handler();
  43:Src/usb.c     ****   }
  44:Src/usb.c     **** 
  45:Src/usb.c     **** }
  57              		.loc 1 45 0
  58 001e 08BD     		pop	{r3, pc}
  59              	.L4:
  42:Src/usb.c     ****   }
  60              		.loc 1 42 0
  61 0020 FFF7FEFF 		bl	Error_Handler
  62              	.LVL1:
  63              		.loc 1 45 0
  64 0024 FBE7     		b	.L1
  65              	.L6:
  66 0026 00BF     		.align	2
  67              	.L5:
  68 0028 00000000 		.word	hpcd_USB_FS
  69 002c 005C0040 		.word	1073765376
ARM GAS  C:\Users\Patrick\AppData\Local\Temp\ccbRiZgl.s 			page 3


  70              		.cfi_endproc
  71              	.LFE66:
  73              		.section	.text.HAL_PCD_MspInit,"ax",%progbits
  74              		.align	1
  75              		.global	HAL_PCD_MspInit
  76              		.syntax unified
  77              		.thumb
  78              		.thumb_func
  79              		.fpu softvfp
  81              	HAL_PCD_MspInit:
  82              	.LFB67:
  46:Src/usb.c     **** 
  47:Src/usb.c     **** void HAL_PCD_MspInit(PCD_HandleTypeDef* pcdHandle)
  48:Src/usb.c     **** {
  83              		.loc 1 48 0
  84              		.cfi_startproc
  85              		@ args = 0, pretend = 0, frame = 8
  86              		@ frame_needed = 0, uses_anonymous_args = 0
  87              		@ link register save eliminated.
  88              	.LVL2:
  49:Src/usb.c     **** 
  50:Src/usb.c     ****   if(pcdHandle->Instance==USB)
  89              		.loc 1 50 0
  90 0000 0268     		ldr	r2, [r0]
  91 0002 094B     		ldr	r3, .L14
  92 0004 9A42     		cmp	r2, r3
  93 0006 00D0     		beq	.L13
  94 0008 7047     		bx	lr
  95              	.L13:
  48:Src/usb.c     **** 
  96              		.loc 1 48 0
  97 000a 82B0     		sub	sp, sp, #8
  98              	.LCFI1:
  99              		.cfi_def_cfa_offset 8
 100              	.LBB2:
  51:Src/usb.c     ****   {
  52:Src/usb.c     ****   /* USER CODE BEGIN USB_MspInit 0 */
  53:Src/usb.c     **** 
  54:Src/usb.c     ****   /* USER CODE END USB_MspInit 0 */
  55:Src/usb.c     ****     /* USB clock enable */
  56:Src/usb.c     ****     __HAL_RCC_USB_CLK_ENABLE();
 101              		.loc 1 56 0
 102 000c 03F5DA33 		add	r3, r3, #111616
 103 0010 DA69     		ldr	r2, [r3, #28]
 104 0012 42F40002 		orr	r2, r2, #8388608
 105 0016 DA61     		str	r2, [r3, #28]
 106 0018 DB69     		ldr	r3, [r3, #28]
 107 001a 03F40003 		and	r3, r3, #8388608
 108 001e 0193     		str	r3, [sp, #4]
 109 0020 019B     		ldr	r3, [sp, #4]
 110              	.LBE2:
  57:Src/usb.c     ****   /* USER CODE BEGIN USB_MspInit 1 */
  58:Src/usb.c     **** 
  59:Src/usb.c     ****   /* USER CODE END USB_MspInit 1 */
  60:Src/usb.c     ****   }
  61:Src/usb.c     **** }
 111              		.loc 1 61 0
ARM GAS  C:\Users\Patrick\AppData\Local\Temp\ccbRiZgl.s 			page 4


 112 0022 02B0     		add	sp, sp, #8
 113              	.LCFI2:
 114              		.cfi_def_cfa_offset 0
 115              		@ sp needed
 116 0024 7047     		bx	lr
 117              	.L15:
 118 0026 00BF     		.align	2
 119              	.L14:
 120 0028 005C0040 		.word	1073765376
 121              		.cfi_endproc
 122              	.LFE67:
 124              		.section	.text.HAL_PCD_MspDeInit,"ax",%progbits
 125              		.align	1
 126              		.global	HAL_PCD_MspDeInit
 127              		.syntax unified
 128              		.thumb
 129              		.thumb_func
 130              		.fpu softvfp
 132              	HAL_PCD_MspDeInit:
 133              	.LFB68:
  62:Src/usb.c     **** 
  63:Src/usb.c     **** void HAL_PCD_MspDeInit(PCD_HandleTypeDef* pcdHandle)
  64:Src/usb.c     **** {
 134              		.loc 1 64 0
 135              		.cfi_startproc
 136              		@ args = 0, pretend = 0, frame = 0
 137              		@ frame_needed = 0, uses_anonymous_args = 0
 138              		@ link register save eliminated.
 139              	.LVL3:
  65:Src/usb.c     **** 
  66:Src/usb.c     ****   if(pcdHandle->Instance==USB)
 140              		.loc 1 66 0
 141 0000 0268     		ldr	r2, [r0]
 142 0002 054B     		ldr	r3, .L19
 143 0004 9A42     		cmp	r2, r3
 144 0006 00D0     		beq	.L18
 145              	.L16:
  67:Src/usb.c     ****   {
  68:Src/usb.c     ****   /* USER CODE BEGIN USB_MspDeInit 0 */
  69:Src/usb.c     **** 
  70:Src/usb.c     ****   /* USER CODE END USB_MspDeInit 0 */
  71:Src/usb.c     ****     /* Peripheral clock disable */
  72:Src/usb.c     ****     __HAL_RCC_USB_CLK_DISABLE();
  73:Src/usb.c     ****   /* USER CODE BEGIN USB_MspDeInit 1 */
  74:Src/usb.c     **** 
  75:Src/usb.c     ****   /* USER CODE END USB_MspDeInit 1 */
  76:Src/usb.c     ****   }
  77:Src/usb.c     **** } 
 146              		.loc 1 77 0
 147 0008 7047     		bx	lr
 148              	.L18:
  72:Src/usb.c     ****   /* USER CODE BEGIN USB_MspDeInit 1 */
 149              		.loc 1 72 0
 150 000a 044A     		ldr	r2, .L19+4
 151 000c D369     		ldr	r3, [r2, #28]
 152 000e 23F40003 		bic	r3, r3, #8388608
 153 0012 D361     		str	r3, [r2, #28]
ARM GAS  C:\Users\Patrick\AppData\Local\Temp\ccbRiZgl.s 			page 5


 154              		.loc 1 77 0
 155 0014 F8E7     		b	.L16
 156              	.L20:
 157 0016 00BF     		.align	2
 158              	.L19:
 159 0018 005C0040 		.word	1073765376
 160 001c 00100240 		.word	1073876992
 161              		.cfi_endproc
 162              	.LFE68:
 164              		.comm	hpcd_USB_FS,1120,4
 165              		.text
 166              	.Letext0:
 167              		.file 2 "c:\\program files (x86)\\embedded toolchain\\gnu tools arm embedded\\7 2017-q4-major\\arm
 168              		.file 3 "c:\\program files (x86)\\embedded toolchain\\gnu tools arm embedded\\7 2017-q4-major\\arm
 169              		.file 4 "Drivers/CMSIS/Include/core_cm3.h"
 170              		.file 5 "Drivers/CMSIS/Device/ST/STM32F1xx/Include/system_stm32f1xx.h"
 171              		.file 6 "Drivers/CMSIS/Device/ST/STM32F1xx/Include/stm32f103xb.h"
 172              		.file 7 "c:\\program files (x86)\\embedded toolchain\\gnu tools arm embedded\\7 2017-q4-major\\arm
 173              		.file 8 "c:\\program files (x86)\\embedded toolchain\\gnu tools arm embedded\\7 2017-q4-major\\arm
 174              		.file 9 "c:\\program files (x86)\\embedded toolchain\\gnu tools arm embedded\\7 2017-q4-major\\lib
 175              		.file 10 "c:\\program files (x86)\\embedded toolchain\\gnu tools arm embedded\\7 2017-q4-major\\ar
 176              		.file 11 "Drivers/CMSIS/Device/ST/STM32F1xx/Include/stm32f1xx.h"
 177              		.file 12 "Drivers/STM32F1xx_HAL_Driver/Inc/stm32f1xx_hal_def.h"
 178              		.file 13 "Drivers/STM32F1xx_HAL_Driver/Inc/stm32f1xx_ll_usb.h"
 179              		.file 14 "Drivers/STM32F1xx_HAL_Driver/Inc/stm32f1xx_hal_pcd.h"
 180              		.file 15 "Drivers/STM32F1xx_HAL_Driver/Inc/stm32f1xx_hal.h"
 181              		.file 16 "Inc/usb.h"
 182              		.file 17 "Inc/main.h"
ARM GAS  C:\Users\Patrick\AppData\Local\Temp\ccbRiZgl.s 			page 6

